ARM GAS  C:\Users\teru\AppData\Local\Temp\cce9PNNc.s 			page 1


   1              		.syntax unified
   2              		.cpu cortex-m3
   3              		.fpu softvfp
   4              		.eabi_attribute 20, 1
   5              		.eabi_attribute 21, 1
   6              		.eabi_attribute 23, 3
   7              		.eabi_attribute 24, 1
   8              		.eabi_attribute 25, 1
   9              		.eabi_attribute 26, 1
  10              		.eabi_attribute 30, 1
  11              		.eabi_attribute 34, 1
  12              		.eabi_attribute 18, 4
  13              		.thumb
  14              		.syntax unified
  15              		.file	"control.c"
  16              		.text
  17              	.Ltext0:
  18              		.cfi_sections	.debug_frame
  19              		.section	.text._Z9pidc_initP4pidclll,"ax",%progbits
  20              		.align	2
  21              		.global	_Z9pidc_initP4pidclll
  22              		.thumb
  23              		.thumb_func
  24              		.type	_Z9pidc_initP4pidclll, %function
  25              	_Z9pidc_initP4pidclll:
  26              		.fnstart
  27              	.LFB7:
  28              		.file 1 "control.c"
   1:control.c     **** #include "control.h"
   2:control.c     **** #include <assert.h>
   3:control.c     **** #include <string.h>
   4:control.c     **** #include "clip.h"
   5:control.c     **** #include "dspmath.h"
   6:control.c     **** #include <stdlib.h>
   7:control.c     **** void pidc_init(pidc_t* obj,q1516_t p,q1516_t i,q1516_t d){
  29              		.loc 1 7 0
  30              		.cfi_startproc
  31              		@ args = 0, pretend = 0, frame = 0
  32              		@ frame_needed = 0, uses_anonymous_args = 0
  33              	.LVL0:
  34 0000 10B5     		push	{r4, lr}
  35              		.save {r4, lr}
  36              		.cfi_def_cfa_offset 8
  37              		.cfi_offset 4, -8
  38              		.cfi_offset 14, -4
   8:control.c     ****     assert(obj);   
  39              		.loc 1 8 0
  40 0002 28B9     		cbnz	r0, .L2
  41              		.loc 1 8 0 is_stmt 0 discriminator 1
  42 0004 074B     		ldr	r3, .L4
  43              	.LVL1:
  44 0006 084A     		ldr	r2, .L4+4
  45              	.LVL2:
  46 0008 0821     		movs	r1, #8
  47              	.LVL3:
  48 000a 0848     		ldr	r0, .L4+8
  49              	.LVL4:
ARM GAS  C:\Users\teru\AppData\Local\Temp\cce9PNNc.s 			page 2


  50 000c FFF7FEFF 		bl	__assert_func
  51              	.LVL5:
  52              	.L2:
  53 0010 0446     		mov	r4, r0
   9:control.c     ****     //パラメータ初期化
  10:control.c     ****     memset(obj,0,sizeof(pidc_t));
  54              		.loc 1 10 0 is_stmt 1
  55 0012 0020     		movs	r0, #0
  56              	.LVL6:
  57 0014 E060     		str	r0, [r4, #12]	@ unaligned
  58 0016 2061     		str	r0, [r4, #16]	@ unaligned
  59 0018 6061     		str	r0, [r4, #20]	@ unaligned
  11:control.c     ****     obj->p=p;
  60              		.loc 1 11 0
  61 001a 2160     		str	r1, [r4]
  12:control.c     ****     obj->i=i;
  62              		.loc 1 12 0
  63 001c 6260     		str	r2, [r4, #4]
  13:control.c     ****     obj->d=d;
  64              		.loc 1 13 0
  65 001e A360     		str	r3, [r4, #8]
  66 0020 10BD     		pop	{r4, pc}
  67              	.LVL7:
  68              	.L5:
  69 0022 00BF     		.align	2
  70              	.L4:
  71 0024 00000000 		.word	.LC0
  72 0028 00000000 		.word	.LANCHOR0
  73 002c 04000000 		.word	.LC1
  74              		.cfi_endproc
  75              	.LFE7:
  76              		.fnend
  77              		.size	_Z9pidc_initP4pidclll, .-_Z9pidc_initP4pidclll
  78              		.section	.text._Z12pidc_controlP4pidcl,"ax",%progbits
  79              		.align	2
  80              		.global	_Z12pidc_controlP4pidcl
  81              		.thumb
  82              		.thumb_func
  83              		.type	_Z12pidc_controlP4pidcl, %function
  84              	_Z12pidc_controlP4pidcl:
  85              		.fnstart
  86              	.LFB8:
  14:control.c     **** }
  15:control.c     **** 
  16:control.c     **** 
  17:control.c     **** q1516_t pidc_control(pidc_t* obj,q1516_t error){
  87              		.loc 1 17 0
  88              		.cfi_startproc
  89              		@ args = 0, pretend = 0, frame = 0
  90              		@ frame_needed = 0, uses_anonymous_args = 0
  91              	.LVL8:
  92 0000 F8B5     		push	{r3, r4, r5, r6, r7, lr}
  93              		.save {r3, r4, r5, r6, r7, lr}
  94              		.cfi_def_cfa_offset 24
  95              		.cfi_offset 3, -24
  96              		.cfi_offset 4, -20
  97              		.cfi_offset 5, -16
ARM GAS  C:\Users\teru\AppData\Local\Temp\cce9PNNc.s 			page 3


  98              		.cfi_offset 6, -12
  99              		.cfi_offset 7, -8
 100              		.cfi_offset 14, -4
  18:control.c     ****     assert(obj); 
 101              		.loc 1 18 0
 102 0002 28B9     		cbnz	r0, .L7
 103              		.loc 1 18 0 is_stmt 0 discriminator 1
 104 0004 2F4B     		ldr	r3, .L18
 105 0006 304A     		ldr	r2, .L18+4
 106 0008 1221     		movs	r1, #18
 107              	.LVL9:
 108 000a 3048     		ldr	r0, .L18+8
 109              	.LVL10:
 110 000c FFF7FEFF 		bl	__assert_func
 111              	.LVL11:
 112              	.L7:
 113 0010 8E46     		mov	lr, r1
 114 0012 0346     		mov	r3, r0
  19:control.c     ****     //エラーの計算
  20:control.c     ****     q1516_t error_sum=obj->error_sum=clip32_add(obj->error_sum,error);
 115              		.loc 1 20 0 is_stmt 1
 116 0014 0469     		ldr	r4, [r0, #16]
 117              	.LVL12:
 118              	.LBB8:
 119              	.LBB9:
 120              		.file 2 "clip.h"
   1:clip.h        **** #pragma once
   2:clip.h        **** #ifndef __CLIP_HEADER_GUARD__
   3:clip.h        **** #define __CLIP_HEADER_GUARD__
   4:clip.h        ****     #include <stdbool.h>
   5:clip.h        ****     #include <stdint.h>
   6:clip.h        ****     #include "dsptype.h"
   7:clip.h        ****     
   8:clip.h        ****     static inline int32_t clip32(int64_t x){
   9:clip.h        ****         if (x>INT32_MAX)return INT32_MAX;
  10:clip.h        ****         if (INT32_MIN>x)return INT32_MIN;
  11:clip.h        ****         return x;
  12:clip.h        ****     }
  13:clip.h        **** 
  14:clip.h        ****     static inline int32_t clip32_add(int32_t x,int32_t y){
  15:clip.h        ****         int64_t add = (int64_t)x+(int64_t)y;
 121              		.loc 2 15 0
 122 0016 7046     		mov	r0, lr
 123              	.LVL13:
 124 0018 C117     		asrs	r1, r0, #31
 125              	.LVL14:
 126 001a 1EEB0406 		adds	r6, lr, r4
 127 001e 41EBE477 		adc	r7, r1, r4, asr #31
 128              	.LVL15:
  16:clip.h        ****         if (add>INT32_MAX)return INT32_MAX;
 129              		.loc 2 16 0
 130 0022 B6F1004F 		cmp	r6, #-2147483648
 131 0026 77F10002 		sbcs	r2, r7, #0
 132 002a 06DA     		bge	.L11
 133              	.LVL16:
  17:clip.h        ****         if (INT32_MIN>add)return INT32_MIN;
 134              		.loc 2 17 0
ARM GAS  C:\Users\teru\AppData\Local\Temp\cce9PNNc.s 			page 4


 135 002c B6F1004F 		cmp	r6, #-2147483648
 136 0030 77F1FF32 		sbcs	r2, r7, #-1
 137 0034 04DB     		blt	.L12
  18:clip.h        ****         return add;
 138              		.loc 2 18 0
 139 0036 7444     		add	r4, r4, lr
 140              	.LVL17:
 141 0038 04E0     		b	.L8
 142              	.LVL18:
 143              	.L11:
  16:clip.h        ****         if (add>INT32_MAX)return INT32_MAX;
 144              		.loc 2 16 0
 145 003a 6FF00044 		mvn	r4, #-2147483648
 146              	.LVL19:
 147 003e 01E0     		b	.L8
 148              	.LVL20:
 149              	.L12:
  17:clip.h        ****         if (INT32_MIN>add)return INT32_MIN;
 150              		.loc 2 17 0
 151 0040 4FF00044 		mov	r4, #-2147483648
 152              	.LVL21:
 153              	.L8:
 154              	.LBE9:
 155              	.LBE8:
 156              		.loc 1 20 0
 157 0044 1C61     		str	r4, [r3, #16]
 158              	.LVL22:
  21:control.c     ****     q1516_t error_diff=clip32_sub(error,obj->error_last);
 159              		.loc 1 21 0
 160 0046 5A69     		ldr	r2, [r3, #20]
 161              	.LVL23:
 162              	.LBB10:
 163              	.LBB11:
  19:clip.h        ****     }
  20:clip.h        **** 
  21:clip.h        ****     static inline int32_t clip32_sub(int32_t x,int32_t y){
  22:clip.h        ****         int64_t sub = (int64_t)x-(int64_t)y;
 164              		.loc 2 22 0
 165 0048 801A     		subs	r0, r0, r2
 166              	.LVL24:
 167 004a 61EBE271 		sbc	r1, r1, r2, asr #31
 168              	.LVL25:
  23:clip.h        ****         if (sub>INT32_MAX)return INT32_MAX;
 169              		.loc 2 23 0
 170 004e B0F1004F 		cmp	r0, #-2147483648
 171 0052 71F10005 		sbcs	r5, r1, #0
 172 0056 07DA     		bge	.L13
  24:clip.h        ****         if (INT32_MIN>sub)return INT32_MIN;
 173              		.loc 2 24 0
 174 0058 B0F1004F 		cmp	r0, #-2147483648
 175 005c 71F1FF31 		sbcs	r1, r1, #-1
 176 0060 05DB     		blt	.L14
  25:clip.h        ****         return sub;
 177              		.loc 2 25 0
 178 0062 C2EB0E05 		rsb	r5, r2, lr
 179 0066 04E0     		b	.L9
 180              	.L13:
ARM GAS  C:\Users\teru\AppData\Local\Temp\cce9PNNc.s 			page 5


  23:clip.h        ****         if (sub>INT32_MAX)return INT32_MAX;
 181              		.loc 2 23 0
 182 0068 6FF00045 		mvn	r5, #-2147483648
 183 006c 01E0     		b	.L9
 184              	.L14:
  24:clip.h        ****         if (INT32_MIN>sub)return INT32_MIN;
 185              		.loc 2 24 0
 186 006e 4FF00045 		mov	r5, #-2147483648
 187              	.L9:
 188              	.LVL26:
 189              	.LBE11:
 190              	.LBE10:
  22:control.c     ****     obj->error_last=error;
 191              		.loc 1 22 0
 192 0072 C3F814E0 		str	lr, [r3, #20]
 193              	.LVL27:
  23:control.c     ****     
  24:control.c     ****     q3132_t sum=0;
  25:control.c     ****     sum+=obj->output_last;
 194              		.loc 1 25 0
 195 0076 DA68     		ldr	r2, [r3, #12]
 196              	.LVL28:
  26:control.c     ****     sum+=obj->p*error;
 197              		.loc 1 26 0
 198 0078 1868     		ldr	r0, [r3]
 199 007a 00FB0EF0 		mul	r0, r0, lr
 200 007e C117     		asrs	r1, r0, #31
 201 0080 8018     		adds	r0, r0, r2
 202 0082 41EBE271 		adc	r1, r1, r2, asr #31
 203              	.LVL29:
  27:control.c     ****     sum+=obj->i*error_sum;
 204              		.loc 1 27 0
 205 0086 5A68     		ldr	r2, [r3, #4]
 206 0088 04FB02F4 		mul	r4, r4, r2
 207              	.LVL30:
 208 008c 0019     		adds	r0, r0, r4
 209              	.LVL31:
 210 008e 41EBE471 		adc	r1, r1, r4, asr #31
 211              	.LVL32:
  28:control.c     ****     sum+=obj->d*error_diff;
 212              		.loc 1 28 0
 213 0092 9A68     		ldr	r2, [r3, #8]
 214 0094 05FB02F2 		mul	r2, r5, r2
 215 0098 8018     		adds	r0, r0, r2
 216              	.LVL33:
 217 009a 41EBE271 		adc	r1, r1, r2, asr #31
 218              	.LVL34:
 219              	.LBB12:
 220              	.LBB13:
   9:clip.h        ****         if (INT32_MIN>x)return INT32_MIN;
 221              		.loc 2 9 0
 222 009e B0F1004F 		cmp	r0, #-2147483648
 223 00a2 71F10002 		sbcs	r2, r1, #0
 224 00a6 05DA     		bge	.L15
  10:clip.h        ****         return x;
 225              		.loc 2 10 0
 226 00a8 B0F1004F 		cmp	r0, #-2147483648
ARM GAS  C:\Users\teru\AppData\Local\Temp\cce9PNNc.s 			page 6


 227 00ac 71F1FF32 		sbcs	r2, r1, #-1
 228 00b0 03DB     		blt	.L16
 229 00b2 04E0     		b	.L10
 230              	.L15:
   9:clip.h        ****         if (INT32_MIN>x)return INT32_MIN;
 231              		.loc 2 9 0
 232 00b4 6FF00040 		mvn	r0, #-2147483648
 233              	.LVL35:
 234 00b8 01E0     		b	.L10
 235              	.LVL36:
 236              	.L16:
  10:clip.h        ****         return x;
 237              		.loc 2 10 0
 238 00ba 4FF00040 		mov	r0, #-2147483648
 239              	.LVL37:
 240              	.L10:
 241              	.LBE13:
 242              	.LBE12:
  29:control.c     ****     return obj->output_last=clip32(sum);
 243              		.loc 1 29 0
 244 00be D860     		str	r0, [r3, #12]
  30:control.c     **** }
 245              		.loc 1 30 0
 246 00c0 F8BD     		pop	{r3, r4, r5, r6, r7, pc}
 247              	.LVL38:
 248              	.L19:
 249 00c2 00BF     		.align	2
 250              	.L18:
 251 00c4 00000000 		.word	.LC0
 252 00c8 34000000 		.word	.LANCHOR0+52
 253 00cc 04000000 		.word	.LC1
 254              		.cfi_endproc
 255              	.LFE8:
 256              		.fnend
 257              		.size	_Z12pidc_controlP4pidcl, .-_Z12pidc_controlP4pidcl
 258              		.section	.text._Z10pidc_errorPK4pidc,"ax",%progbits
 259              		.align	2
 260              		.global	_Z10pidc_errorPK4pidc
 261              		.thumb
 262              		.thumb_func
 263              		.type	_Z10pidc_errorPK4pidc, %function
 264              	_Z10pidc_errorPK4pidc:
 265              		.fnstart
 266              	.LFB9:
  31:control.c     **** 
  32:control.c     **** q1516_t pidc_error(const pidc_t* obj){
 267              		.loc 1 32 0
 268              		.cfi_startproc
 269              		@ args = 0, pretend = 0, frame = 0
 270              		@ frame_needed = 0, uses_anonymous_args = 0
 271              	.LVL39:
  33:control.c     ****     assert(obj);
 272              		.loc 1 33 0
 273 0000 30B9     		cbnz	r0, .L21
  32:control.c     ****     assert(obj);
 274              		.loc 1 32 0 discriminator 1
 275 0002 08B5     		push	{r3, lr}
ARM GAS  C:\Users\teru\AppData\Local\Temp\cce9PNNc.s 			page 7


 276              		.save {r3, lr}
 277              		.cfi_def_cfa_offset 8
 278              		.cfi_offset 3, -8
 279              		.cfi_offset 14, -4
 280              		.loc 1 33 0 discriminator 1
 281 0004 034B     		ldr	r3, .L23
 282 0006 044A     		ldr	r2, .L23+4
 283 0008 2121     		movs	r1, #33
 284 000a 0448     		ldr	r0, .L23+8
 285              	.LVL40:
 286 000c FFF7FEFF 		bl	__assert_func
 287              	.LVL41:
 288              	.L21:
 289              		.cfi_def_cfa_offset 0
 290              		.cfi_restore 3
 291              		.cfi_restore 14
  34:control.c     ****     return 0;
  35:control.c     **** }...
 292              		.loc 1 35 0
 293 0010 0020     		movs	r0, #0
 294              	.LVL42:
 295 0012 7047     		bx	lr
 296              	.L24:
 297              		.align	2
 298              	.L23:
 299 0014 00000000 		.word	.LC0
 300 0018 5C000000 		.word	.LANCHOR0+92
 301 001c 04000000 		.word	.LC1
 302              		.cfi_endproc
 303              	.LFE9:
 304              		.fnend
 305              		.size	_Z10pidc_errorPK4pidc, .-_Z10pidc_errorPK4pidc
 306              		.section	.rodata
 307              		.align	2
 308              		.set	.LANCHOR0,. + 0
 309              		.type	_ZZ9pidc_initP4pidclllE19__PRETTY_FUNCTION__, %object
 310              		.size	_ZZ9pidc_initP4pidclllE19__PRETTY_FUNCTION__, 51
 311              	_ZZ9pidc_initP4pidclllE19__PRETTY_FUNCTION__:
 312 0000 766F6964 		.ascii	"void pidc_init(pidc_t*, q1516_t, q1516_t, q1516_t)\000"
 312      20706964 
 312      635F696E 
 312      69742870 
 312      6964635F 
 313 0033 00       		.space	1
 314              		.type	_ZZ12pidc_controlP4pidclE19__PRETTY_FUNCTION__, %object
 315              		.size	_ZZ12pidc_controlP4pidclE19__PRETTY_FUNCTION__, 39
 316              	_ZZ12pidc_controlP4pidclE19__PRETTY_FUNCTION__:
 317 0034 71313531 		.ascii	"q1516_t pidc_control(pidc_t*, q1516_t)\000"
 317      365F7420 
 317      70696463 
 317      5F636F6E 
 317      74726F6C 
 318 005b 00       		.space	1
 319              		.type	_ZZ10pidc_errorPK4pidcE19__PRETTY_FUNCTION__, %object
 320              		.size	_ZZ10pidc_errorPK4pidcE19__PRETTY_FUNCTION__, 34
 321              	_ZZ10pidc_errorPK4pidcE19__PRETTY_FUNCTION__:
 322 005c 71313531 		.ascii	"q1516_t pidc_error(const pidc_t*)\000"
ARM GAS  C:\Users\teru\AppData\Local\Temp\cce9PNNc.s 			page 8


 322      365F7420 
 322      70696463 
 322      5F657272 
 322      6F722863 
 323              		.section	.rodata.str1.4,"aMS",%progbits,1
 324              		.align	2
 325              	.LC0:
 326 0000 6F626A00 		.ascii	"obj\000"
 327              	.LC1:
 328 0004 636F6E74 		.ascii	"control.c\000"
 328      726F6C2E 
 328      6300
 329              		.text
 330              	.Letext0:
 331              		.file 3 "c:\\program files (x86)\\cypress\\psoc creator\\4.2\\psoc creator\\import\\gnu\\arm\\5.4.
 332              		.file 4 "c:\\program files (x86)\\cypress\\psoc creator\\4.2\\psoc creator\\import\\gnu\\arm\\5.4.
 333              		.file 5 "dsptype.h"
 334              		.file 6 "control.h"
 335              		.file 7 "c:\\program files (x86)\\cypress\\psoc creator\\4.2\\psoc creator\\import\\gnu\\arm\\5.4.