ARM GAS  C:\Users\teru\AppData\Local\Temp\ccyFXhH4.s 			page 1


   1              		.syntax unified
   2              		.cpu cortex-m3
   3              		.fpu softvfp
   4              		.eabi_attribute 20, 1
   5              		.eabi_attribute 21, 1
   6              		.eabi_attribute 23, 3
   7              		.eabi_attribute 24, 1
   8              		.eabi_attribute 25, 1
   9              		.eabi_attribute 26, 1
  10              		.eabi_attribute 30, 1
  11              		.eabi_attribute 34, 1
  12              		.eabi_attribute 18, 4
  13              		.thumb
  14              		.syntax unified
  15              		.file	"cyfitter_cfg.c"
  16              		.text
  17              	.Ltext0:
  18              		.cfi_sections	.debug_frame
  19              		.section	.text.CyClockStartupError,"ax",%progbits
  20              		.align	2
  21              		.thumb
  22              		.thumb_func
  23              		.type	CyClockStartupError, %function
  24              	CyClockStartupError:
  25              	.LFB3:
  26              		.file 1 "Generated_Source\\PSoC5\\cyfitter_cfg.c"
   1:Generated_Source\PSoC5/cyfitter_cfg.c **** 
   2:Generated_Source\PSoC5/cyfitter_cfg.c **** /*******************************************************************************
   3:Generated_Source\PSoC5/cyfitter_cfg.c **** * File Name: cyfitter_cfg.c
   4:Generated_Source\PSoC5/cyfitter_cfg.c **** * 
   5:Generated_Source\PSoC5/cyfitter_cfg.c **** * PSoC Creator  4.2
   6:Generated_Source\PSoC5/cyfitter_cfg.c **** *
   7:Generated_Source\PSoC5/cyfitter_cfg.c **** * Description:
   8:Generated_Source\PSoC5/cyfitter_cfg.c **** * This file contains device initialization code.
   9:Generated_Source\PSoC5/cyfitter_cfg.c **** * Except for the user defined sections in CyClockStartupError(), this file should not be modified.
  10:Generated_Source\PSoC5/cyfitter_cfg.c **** * This file is automatically generated by PSoC Creator.
  11:Generated_Source\PSoC5/cyfitter_cfg.c **** *
  12:Generated_Source\PSoC5/cyfitter_cfg.c **** ********************************************************************************
  13:Generated_Source\PSoC5/cyfitter_cfg.c **** * Copyright (c) 2007-2018 Cypress Semiconductor.  All rights reserved.
  14:Generated_Source\PSoC5/cyfitter_cfg.c **** * You may use this file only in accordance with the license, terms, conditions, 
  15:Generated_Source\PSoC5/cyfitter_cfg.c **** * disclaimers, and limitations in the end user license agreement accompanying 
  16:Generated_Source\PSoC5/cyfitter_cfg.c **** * the software package with which this file was provided.
  17:Generated_Source\PSoC5/cyfitter_cfg.c **** ********************************************************************************/
  18:Generated_Source\PSoC5/cyfitter_cfg.c **** 
  19:Generated_Source\PSoC5/cyfitter_cfg.c **** #include <string.h>
  20:Generated_Source\PSoC5/cyfitter_cfg.c **** #include "cytypes.h"
  21:Generated_Source\PSoC5/cyfitter_cfg.c **** #include "cydevice_trm.h"
  22:Generated_Source\PSoC5/cyfitter_cfg.c **** #include "cyfitter.h"
  23:Generated_Source\PSoC5/cyfitter_cfg.c **** #include "CyLib.h"
  24:Generated_Source\PSoC5/cyfitter_cfg.c **** #include "cyfitter_cfg.h"
  25:Generated_Source\PSoC5/cyfitter_cfg.c **** #include "cyapicallbacks.h"
  26:Generated_Source\PSoC5/cyfitter_cfg.c **** 
  27:Generated_Source\PSoC5/cyfitter_cfg.c **** #define CY_NEED_CYCLOCKSTARTUPERROR 1
  28:Generated_Source\PSoC5/cyfitter_cfg.c **** 
  29:Generated_Source\PSoC5/cyfitter_cfg.c **** 
  30:Generated_Source\PSoC5/cyfitter_cfg.c **** #if defined(__GNUC__) || defined(__ARMCC_VERSION)
  31:Generated_Source\PSoC5/cyfitter_cfg.c ****     #define CYPACKED 
ARM GAS  C:\Users\teru\AppData\Local\Temp\ccyFXhH4.s 			page 2


  32:Generated_Source\PSoC5/cyfitter_cfg.c ****     #define CYPACKED_ATTR __attribute__ ((packed))
  33:Generated_Source\PSoC5/cyfitter_cfg.c ****     #define CYALIGNED __attribute__ ((aligned))
  34:Generated_Source\PSoC5/cyfitter_cfg.c ****     #define CY_CFG_UNUSED __attribute__ ((unused))
  35:Generated_Source\PSoC5/cyfitter_cfg.c ****     #ifndef CY_CFG_SECTION
  36:Generated_Source\PSoC5/cyfitter_cfg.c ****         #define CY_CFG_SECTION __attribute__ ((section(".psocinit")))
  37:Generated_Source\PSoC5/cyfitter_cfg.c ****     #endif
  38:Generated_Source\PSoC5/cyfitter_cfg.c ****     
  39:Generated_Source\PSoC5/cyfitter_cfg.c ****     #if defined(__ARMCC_VERSION)
  40:Generated_Source\PSoC5/cyfitter_cfg.c ****         #define CY_CFG_MEMORY_BARRIER() __memory_changed()
  41:Generated_Source\PSoC5/cyfitter_cfg.c ****     #else
  42:Generated_Source\PSoC5/cyfitter_cfg.c ****         #define CY_CFG_MEMORY_BARRIER() __sync_synchronize()
  43:Generated_Source\PSoC5/cyfitter_cfg.c ****     #endif
  44:Generated_Source\PSoC5/cyfitter_cfg.c ****     
  45:Generated_Source\PSoC5/cyfitter_cfg.c **** #elif defined(__ICCARM__)
  46:Generated_Source\PSoC5/cyfitter_cfg.c ****     #include <intrinsics.h>
  47:Generated_Source\PSoC5/cyfitter_cfg.c **** 
  48:Generated_Source\PSoC5/cyfitter_cfg.c ****     #define CYPACKED __packed
  49:Generated_Source\PSoC5/cyfitter_cfg.c ****     #define CYPACKED_ATTR 
  50:Generated_Source\PSoC5/cyfitter_cfg.c ****     #define CYALIGNED _Pragma("data_alignment=4")
  51:Generated_Source\PSoC5/cyfitter_cfg.c ****     #define CY_CFG_UNUSED _Pragma("diag_suppress=Pe177")
  52:Generated_Source\PSoC5/cyfitter_cfg.c ****     #define CY_CFG_SECTION _Pragma("location=\".psocinit\"")
  53:Generated_Source\PSoC5/cyfitter_cfg.c ****     
  54:Generated_Source\PSoC5/cyfitter_cfg.c ****     #define CY_CFG_MEMORY_BARRIER() __DMB()
  55:Generated_Source\PSoC5/cyfitter_cfg.c ****     
  56:Generated_Source\PSoC5/cyfitter_cfg.c **** #else
  57:Generated_Source\PSoC5/cyfitter_cfg.c ****     #error Unsupported toolchain
  58:Generated_Source\PSoC5/cyfitter_cfg.c **** #endif
  59:Generated_Source\PSoC5/cyfitter_cfg.c **** 
  60:Generated_Source\PSoC5/cyfitter_cfg.c **** #ifndef CYCODE
  61:Generated_Source\PSoC5/cyfitter_cfg.c ****     #define CYCODE
  62:Generated_Source\PSoC5/cyfitter_cfg.c **** #endif
  63:Generated_Source\PSoC5/cyfitter_cfg.c **** #ifndef CYDATA
  64:Generated_Source\PSoC5/cyfitter_cfg.c ****     #define CYDATA
  65:Generated_Source\PSoC5/cyfitter_cfg.c **** #endif
  66:Generated_Source\PSoC5/cyfitter_cfg.c **** #ifndef CYFAR
  67:Generated_Source\PSoC5/cyfitter_cfg.c ****     #define CYFAR
  68:Generated_Source\PSoC5/cyfitter_cfg.c **** #endif
  69:Generated_Source\PSoC5/cyfitter_cfg.c **** #ifndef CYXDATA
  70:Generated_Source\PSoC5/cyfitter_cfg.c ****     #define CYXDATA
  71:Generated_Source\PSoC5/cyfitter_cfg.c **** #endif
  72:Generated_Source\PSoC5/cyfitter_cfg.c **** 
  73:Generated_Source\PSoC5/cyfitter_cfg.c **** 
  74:Generated_Source\PSoC5/cyfitter_cfg.c **** CY_CFG_UNUSED
  75:Generated_Source\PSoC5/cyfitter_cfg.c **** static void CYMEMZERO(void *s, size_t n);
  76:Generated_Source\PSoC5/cyfitter_cfg.c **** CY_CFG_UNUSED
  77:Generated_Source\PSoC5/cyfitter_cfg.c **** static void CYMEMZERO(void *s, size_t n)
  78:Generated_Source\PSoC5/cyfitter_cfg.c **** {
  79:Generated_Source\PSoC5/cyfitter_cfg.c **** 	(void)memset(s, 0, n);
  80:Generated_Source\PSoC5/cyfitter_cfg.c **** }
  81:Generated_Source\PSoC5/cyfitter_cfg.c **** CY_CFG_UNUSED
  82:Generated_Source\PSoC5/cyfitter_cfg.c **** static void CYCONFIGCPY(void *dest, const void *src, size_t n);
  83:Generated_Source\PSoC5/cyfitter_cfg.c **** CY_CFG_UNUSED
  84:Generated_Source\PSoC5/cyfitter_cfg.c **** static void CYCONFIGCPY(void *dest, const void *src, size_t n)
  85:Generated_Source\PSoC5/cyfitter_cfg.c **** {
  86:Generated_Source\PSoC5/cyfitter_cfg.c **** 	(void)memcpy(dest, src, n);
  87:Generated_Source\PSoC5/cyfitter_cfg.c **** }
  88:Generated_Source\PSoC5/cyfitter_cfg.c **** CY_CFG_UNUSED
ARM GAS  C:\Users\teru\AppData\Local\Temp\ccyFXhH4.s 			page 3


  89:Generated_Source\PSoC5/cyfitter_cfg.c **** static void CYCONFIGCPYCODE(void *dest, const void *src, size_t n);
  90:Generated_Source\PSoC5/cyfitter_cfg.c **** CY_CFG_UNUSED
  91:Generated_Source\PSoC5/cyfitter_cfg.c **** static void CYCONFIGCPYCODE(void *dest, const void *src, size_t n)
  92:Generated_Source\PSoC5/cyfitter_cfg.c **** {
  93:Generated_Source\PSoC5/cyfitter_cfg.c **** 	(void)memcpy(dest, src, n);
  94:Generated_Source\PSoC5/cyfitter_cfg.c **** }
  95:Generated_Source\PSoC5/cyfitter_cfg.c **** 
  96:Generated_Source\PSoC5/cyfitter_cfg.c **** 
  97:Generated_Source\PSoC5/cyfitter_cfg.c **** 
  98:Generated_Source\PSoC5/cyfitter_cfg.c **** 
  99:Generated_Source\PSoC5/cyfitter_cfg.c **** /* Clock startup error codes                                                   */
 100:Generated_Source\PSoC5/cyfitter_cfg.c **** #define CYCLOCKSTART_NO_ERROR    0u
 101:Generated_Source\PSoC5/cyfitter_cfg.c **** #define CYCLOCKSTART_XTAL_ERROR  1u
 102:Generated_Source\PSoC5/cyfitter_cfg.c **** #define CYCLOCKSTART_32KHZ_ERROR 2u
 103:Generated_Source\PSoC5/cyfitter_cfg.c **** #define CYCLOCKSTART_PLL_ERROR   3u
 104:Generated_Source\PSoC5/cyfitter_cfg.c **** #define CYCLOCKSTART_FLL_ERROR   4u
 105:Generated_Source\PSoC5/cyfitter_cfg.c **** #define CYCLOCKSTART_WCO_ERROR   5u
 106:Generated_Source\PSoC5/cyfitter_cfg.c **** 
 107:Generated_Source\PSoC5/cyfitter_cfg.c **** 
 108:Generated_Source\PSoC5/cyfitter_cfg.c **** #ifdef CY_NEED_CYCLOCKSTARTUPERROR
 109:Generated_Source\PSoC5/cyfitter_cfg.c **** /*******************************************************************************
 110:Generated_Source\PSoC5/cyfitter_cfg.c **** * Function Name: CyClockStartupError
 111:Generated_Source\PSoC5/cyfitter_cfg.c **** ********************************************************************************
 112:Generated_Source\PSoC5/cyfitter_cfg.c **** * Summary:
 113:Generated_Source\PSoC5/cyfitter_cfg.c **** *  If an error is encountered during clock configuration (crystal startup error,
 114:Generated_Source\PSoC5/cyfitter_cfg.c **** *  PLL lock error, etc.), the system will end up here.  Unless reimplemented by
 115:Generated_Source\PSoC5/cyfitter_cfg.c **** *  the customer, this function will stop in an infinite loop.
 116:Generated_Source\PSoC5/cyfitter_cfg.c **** *
 117:Generated_Source\PSoC5/cyfitter_cfg.c **** * Parameters:
 118:Generated_Source\PSoC5/cyfitter_cfg.c **** *   void
 119:Generated_Source\PSoC5/cyfitter_cfg.c **** *
 120:Generated_Source\PSoC5/cyfitter_cfg.c **** * Return:
 121:Generated_Source\PSoC5/cyfitter_cfg.c **** *   void
 122:Generated_Source\PSoC5/cyfitter_cfg.c **** *
 123:Generated_Source\PSoC5/cyfitter_cfg.c **** *******************************************************************************/
 124:Generated_Source\PSoC5/cyfitter_cfg.c **** CY_CFG_UNUSED
 125:Generated_Source\PSoC5/cyfitter_cfg.c **** static void CyClockStartupError(uint8 errorCode);
 126:Generated_Source\PSoC5/cyfitter_cfg.c **** CY_CFG_UNUSED
 127:Generated_Source\PSoC5/cyfitter_cfg.c **** static void CyClockStartupError(uint8 errorCode)
 128:Generated_Source\PSoC5/cyfitter_cfg.c **** {
  27              		.loc 1 128 0
  28              		.cfi_startproc
  29              		@ Volatile: function does not return.
  30              		@ args = 0, pretend = 0, frame = 0
  31              		@ frame_needed = 0, uses_anonymous_args = 0
  32              		@ link register save eliminated.
  33              	.LVL0:
  34              	.L2:
  35 0000 FEE7     		b	.L2
  36              		.cfi_endproc
  37              	.LFE3:
  38              		.size	CyClockStartupError, .-CyClockStartupError
  39 0002 00BF     		.section	.text.cfg_write_bytes32,"ax",%progbits
  40              		.align	2
  41              		.thumb
  42              		.thumb_func
  43              		.type	cfg_write_bytes32, %function
ARM GAS  C:\Users\teru\AppData\Local\Temp\ccyFXhH4.s 			page 4


  44              	cfg_write_bytes32:
  45              	.LFB4:
 129:Generated_Source\PSoC5/cyfitter_cfg.c ****     /* To remove the compiler warning if errorCode not used.                */
 130:Generated_Source\PSoC5/cyfitter_cfg.c ****     errorCode = errorCode;
 131:Generated_Source\PSoC5/cyfitter_cfg.c **** 
 132:Generated_Source\PSoC5/cyfitter_cfg.c ****     /* If we have a clock startup error (bad MHz crystal, PLL lock, etc.),  */
 133:Generated_Source\PSoC5/cyfitter_cfg.c ****     /* we will end up here to allow the customer to implement something to  */
 134:Generated_Source\PSoC5/cyfitter_cfg.c ****     /* deal with the clock condition.                                       */
 135:Generated_Source\PSoC5/cyfitter_cfg.c **** 
 136:Generated_Source\PSoC5/cyfitter_cfg.c **** #ifdef CY_CFG_CLOCK_STARTUP_ERROR_CALLBACK
 137:Generated_Source\PSoC5/cyfitter_cfg.c ****     CY_CFG_Clock_Startup_ErrorCallback();
 138:Generated_Source\PSoC5/cyfitter_cfg.c **** #else
 139:Generated_Source\PSoC5/cyfitter_cfg.c ****     /*  If not using CY_CFG_CLOCK_STARTUP_ERROR_CALLBACK, place your clock startup code here. */
 140:Generated_Source\PSoC5/cyfitter_cfg.c ****     /* `#START CyClockStartupError` */
 141:Generated_Source\PSoC5/cyfitter_cfg.c **** 
 142:Generated_Source\PSoC5/cyfitter_cfg.c **** 
 143:Generated_Source\PSoC5/cyfitter_cfg.c **** 
 144:Generated_Source\PSoC5/cyfitter_cfg.c ****     /* `#END` */
 145:Generated_Source\PSoC5/cyfitter_cfg.c **** 
 146:Generated_Source\PSoC5/cyfitter_cfg.c ****     while(1) {}
 147:Generated_Source\PSoC5/cyfitter_cfg.c **** #endif /* CY_CFG_CLOCK_STARTUP_ERROR_CALLBACK */
 148:Generated_Source\PSoC5/cyfitter_cfg.c **** }
 149:Generated_Source\PSoC5/cyfitter_cfg.c **** #endif
 150:Generated_Source\PSoC5/cyfitter_cfg.c **** 
 151:Generated_Source\PSoC5/cyfitter_cfg.c **** #define CY_CFG_BASE_ADDR_COUNT 38u
 152:Generated_Source\PSoC5/cyfitter_cfg.c **** CYPACKED typedef struct
 153:Generated_Source\PSoC5/cyfitter_cfg.c **** {
 154:Generated_Source\PSoC5/cyfitter_cfg.c **** 	uint8 offset;
 155:Generated_Source\PSoC5/cyfitter_cfg.c **** 	uint8 value;
 156:Generated_Source\PSoC5/cyfitter_cfg.c **** } CYPACKED_ATTR cy_cfg_addrvalue_t;
 157:Generated_Source\PSoC5/cyfitter_cfg.c **** 
 158:Generated_Source\PSoC5/cyfitter_cfg.c **** #define cy_cfg_addr_table ((const uint32 CYFAR *)0x48000000u)
 159:Generated_Source\PSoC5/cyfitter_cfg.c **** #define cy_cfg_data_table ((const cy_cfg_addrvalue_t CYFAR *)0x48000098u)
 160:Generated_Source\PSoC5/cyfitter_cfg.c **** 
 161:Generated_Source\PSoC5/cyfitter_cfg.c **** /* UCFG_BCTL0 Address: CYREG_BCTL0_MDCLK_EN Size (bytes): 16 */
 162:Generated_Source\PSoC5/cyfitter_cfg.c **** #define BS_UCFG_BCTL0_VAL ((const uint8 CYFAR *)0x48000BACu)
 163:Generated_Source\PSoC5/cyfitter_cfg.c **** 
 164:Generated_Source\PSoC5/cyfitter_cfg.c **** /* IOPINS0_0 Address: CYREG_PRT0_DM0 Size (bytes): 8 */
 165:Generated_Source\PSoC5/cyfitter_cfg.c **** #define BS_IOPINS0_0_VAL ((const uint8 CYFAR *)0x48000BBCu)
 166:Generated_Source\PSoC5/cyfitter_cfg.c **** 
 167:Generated_Source\PSoC5/cyfitter_cfg.c **** /* IOPINS0_7 Address: CYREG_PRT12_DR Size (bytes): 10 */
 168:Generated_Source\PSoC5/cyfitter_cfg.c **** #define BS_IOPINS0_7_VAL ((const uint8 CYFAR *)0x48000BC4u)
 169:Generated_Source\PSoC5/cyfitter_cfg.c **** 
 170:Generated_Source\PSoC5/cyfitter_cfg.c **** /* IOPINS0_8 Address: CYREG_PRT15_DR Size (bytes): 10 */
 171:Generated_Source\PSoC5/cyfitter_cfg.c **** #define BS_IOPINS0_8_VAL ((const uint8 CYFAR *)0x48000BD0u)
 172:Generated_Source\PSoC5/cyfitter_cfg.c **** 
 173:Generated_Source\PSoC5/cyfitter_cfg.c **** /* IOPINS0_1 Address: CYREG_PRT1_DM0 Size (bytes): 8 */
 174:Generated_Source\PSoC5/cyfitter_cfg.c **** #define BS_IOPINS0_1_VAL ((const uint8 CYFAR *)0x48000BDCu)
 175:Generated_Source\PSoC5/cyfitter_cfg.c **** 
 176:Generated_Source\PSoC5/cyfitter_cfg.c **** 
 177:Generated_Source\PSoC5/cyfitter_cfg.c **** /*******************************************************************************
 178:Generated_Source\PSoC5/cyfitter_cfg.c **** * Function Name: cfg_write_bytes32
 179:Generated_Source\PSoC5/cyfitter_cfg.c **** ********************************************************************************
 180:Generated_Source\PSoC5/cyfitter_cfg.c **** * Summary:
 181:Generated_Source\PSoC5/cyfitter_cfg.c **** *  This function is used for setting up the chip configuration areas that
 182:Generated_Source\PSoC5/cyfitter_cfg.c **** *  contain relatively sparse data.
 183:Generated_Source\PSoC5/cyfitter_cfg.c **** *
ARM GAS  C:\Users\teru\AppData\Local\Temp\ccyFXhH4.s 			page 5


 184:Generated_Source\PSoC5/cyfitter_cfg.c **** * Parameters:
 185:Generated_Source\PSoC5/cyfitter_cfg.c **** *   void
 186:Generated_Source\PSoC5/cyfitter_cfg.c **** *
 187:Generated_Source\PSoC5/cyfitter_cfg.c **** * Return:
 188:Generated_Source\PSoC5/cyfitter_cfg.c **** *   void
 189:Generated_Source\PSoC5/cyfitter_cfg.c **** *
 190:Generated_Source\PSoC5/cyfitter_cfg.c **** *******************************************************************************/
 191:Generated_Source\PSoC5/cyfitter_cfg.c **** static void cfg_write_bytes32(const uint32 addr_table[], const cy_cfg_addrvalue_t data_table[]);
 192:Generated_Source\PSoC5/cyfitter_cfg.c **** static void cfg_write_bytes32(const uint32 addr_table[], const cy_cfg_addrvalue_t data_table[])
 193:Generated_Source\PSoC5/cyfitter_cfg.c **** {
  46              		.loc 1 193 0
  47              		.cfi_startproc
  48              		@ args = 0, pretend = 0, frame = 0
  49              		@ frame_needed = 0, uses_anonymous_args = 0
  50              		@ link register save eliminated.
  51              	.LVL1:
  52              		.loc 1 193 0
  53 0000 F0B4     		push	{r4, r5, r6, r7}
  54              		.cfi_def_cfa_offset 16
  55              		.cfi_offset 4, -16
  56              		.cfi_offset 5, -12
  57              		.cfi_offset 6, -8
  58              		.cfi_offset 7, -4
  59              	.LVL2:
 194:Generated_Source\PSoC5/cyfitter_cfg.c **** 	/* For 32-bit little-endian architectures */
 195:Generated_Source\PSoC5/cyfitter_cfg.c **** 	uint32 i, j = 0u;
  60              		.loc 1 195 0
  61 0002 0022     		movs	r2, #0
 196:Generated_Source\PSoC5/cyfitter_cfg.c **** 	for (i = 0u; i < CY_CFG_BASE_ADDR_COUNT; i++)
  62              		.loc 1 196 0
  63 0004 1746     		mov	r7, r2
  64 0006 11E0     		b	.L4
  65              	.LVL3:
  66              	.L7:
  67              	.LBB2:
 197:Generated_Source\PSoC5/cyfitter_cfg.c **** 	{
 198:Generated_Source\PSoC5/cyfitter_cfg.c **** 		uint32 baseAddr = addr_table[i];
  68              		.loc 1 198 0
  69 0008 50F82760 		ldr	r6, [r0, r7, lsl #2]
  70              	.LVL4:
 199:Generated_Source\PSoC5/cyfitter_cfg.c **** 		uint8 count = (uint8)baseAddr;
  71              		.loc 1 199 0
  72 000c F3B2     		uxtb	r3, r6
  73              	.LVL5:
 200:Generated_Source\PSoC5/cyfitter_cfg.c **** 		baseAddr &= 0xFFFFFF00u;
  74              		.loc 1 200 0
  75 000e 26F0FF06 		bic	r6, r6, #255
  76              	.LVL6:
 201:Generated_Source\PSoC5/cyfitter_cfg.c **** 		while (count != 0u)
  77              		.loc 1 201 0
  78 0012 08E0     		b	.L5
  79              	.L6:
 202:Generated_Source\PSoC5/cyfitter_cfg.c **** 		{
 203:Generated_Source\PSoC5/cyfitter_cfg.c **** 			CY_SET_REG8((void *)(baseAddr + data_table[j].offset), data_table[j].value);
  80              		.loc 1 203 0
  81 0014 01EB4205 		add	r5, r1, r2, lsl #1
  82 0018 11F81240 		ldrb	r4, [r1, r2, lsl #1]	@ zero_extendqisi2
ARM GAS  C:\Users\teru\AppData\Local\Temp\ccyFXhH4.s 			page 6


  83 001c 6D78     		ldrb	r5, [r5, #1]	@ zero_extendqisi2
  84 001e A555     		strb	r5, [r4, r6]
 204:Generated_Source\PSoC5/cyfitter_cfg.c **** 			j++;
  85              		.loc 1 204 0
  86 0020 0132     		adds	r2, r2, #1
  87              	.LVL7:
 205:Generated_Source\PSoC5/cyfitter_cfg.c **** 			count--;
  88              		.loc 1 205 0
  89 0022 013B     		subs	r3, r3, #1
  90              	.LVL8:
  91 0024 DBB2     		uxtb	r3, r3
  92              	.LVL9:
  93              	.L5:
 201:Generated_Source\PSoC5/cyfitter_cfg.c **** 		{
  94              		.loc 1 201 0
  95 0026 002B     		cmp	r3, #0
  96 0028 F4D1     		bne	.L6
  97              	.LBE2:
 196:Generated_Source\PSoC5/cyfitter_cfg.c **** 	{
  98              		.loc 1 196 0 discriminator 2
  99 002a 0137     		adds	r7, r7, #1
 100              	.LVL10:
 101              	.L4:
 196:Generated_Source\PSoC5/cyfitter_cfg.c **** 	{
 102              		.loc 1 196 0 is_stmt 0 discriminator 1
 103 002c 252F     		cmp	r7, #37
 104 002e EBD9     		bls	.L7
 206:Generated_Source\PSoC5/cyfitter_cfg.c **** 		}
 207:Generated_Source\PSoC5/cyfitter_cfg.c **** 	}
 208:Generated_Source\PSoC5/cyfitter_cfg.c **** }
 105              		.loc 1 208 0 is_stmt 1
 106 0030 F0BC     		pop	{r4, r5, r6, r7}
 107              		.cfi_restore 7
 108              		.cfi_restore 6
 109              		.cfi_restore 5
 110              		.cfi_restore 4
 111              		.cfi_def_cfa_offset 0
 112              	.LVL11:
 113 0032 7047     		bx	lr
 114              		.cfi_endproc
 115              	.LFE4:
 116              		.size	cfg_write_bytes32, .-cfg_write_bytes32
 117              		.section	.text.AnalogSetDefault,"ax",%progbits
 118              		.align	2
 119              		.thumb
 120              		.thumb_func
 121              		.type	AnalogSetDefault, %function
 122              	AnalogSetDefault:
 123              	.LFB6:
 209:Generated_Source\PSoC5/cyfitter_cfg.c **** 
 210:Generated_Source\PSoC5/cyfitter_cfg.c **** /*******************************************************************************
 211:Generated_Source\PSoC5/cyfitter_cfg.c **** * Function Name: ClockSetup
 212:Generated_Source\PSoC5/cyfitter_cfg.c **** ********************************************************************************
 213:Generated_Source\PSoC5/cyfitter_cfg.c **** *
 214:Generated_Source\PSoC5/cyfitter_cfg.c **** * Summary:
 215:Generated_Source\PSoC5/cyfitter_cfg.c **** *  Performs the initialization of all of the clocks in the device based on the
 216:Generated_Source\PSoC5/cyfitter_cfg.c **** *  settings in the Clock tab of the DWR.  This includes enabling the requested
ARM GAS  C:\Users\teru\AppData\Local\Temp\ccyFXhH4.s 			page 7


 217:Generated_Source\PSoC5/cyfitter_cfg.c **** *  clocks and setting the necessary dividers to produce the desired frequency. 
 218:Generated_Source\PSoC5/cyfitter_cfg.c **** *
 219:Generated_Source\PSoC5/cyfitter_cfg.c **** * Parameters:
 220:Generated_Source\PSoC5/cyfitter_cfg.c **** *  void
 221:Generated_Source\PSoC5/cyfitter_cfg.c **** *
 222:Generated_Source\PSoC5/cyfitter_cfg.c **** * Return:
 223:Generated_Source\PSoC5/cyfitter_cfg.c **** *  void
 224:Generated_Source\PSoC5/cyfitter_cfg.c **** *
 225:Generated_Source\PSoC5/cyfitter_cfg.c **** *******************************************************************************/
 226:Generated_Source\PSoC5/cyfitter_cfg.c **** static void ClockSetup(void);
 227:Generated_Source\PSoC5/cyfitter_cfg.c **** static void ClockSetup(void)
 228:Generated_Source\PSoC5/cyfitter_cfg.c **** {
 229:Generated_Source\PSoC5/cyfitter_cfg.c **** 	uint32 timeout;
 230:Generated_Source\PSoC5/cyfitter_cfg.c **** 	uint8 pllLock;
 231:Generated_Source\PSoC5/cyfitter_cfg.c **** 
 232:Generated_Source\PSoC5/cyfitter_cfg.c **** 
 233:Generated_Source\PSoC5/cyfitter_cfg.c **** 	/* Configure Digital Clocks based on settings from Clock DWR */
 234:Generated_Source\PSoC5/cyfitter_cfg.c **** 	CY_SET_XTND_REG16((void CYFAR *)(CYREG_CLKDIST_DCFG0_CFG0), 0x0000u);
 235:Generated_Source\PSoC5/cyfitter_cfg.c **** 	CY_SET_XTND_REG8((void CYFAR *)(CYREG_CLKDIST_DCFG0_CFG0 + 0x2u), 0x19u);
 236:Generated_Source\PSoC5/cyfitter_cfg.c **** 	CY_SET_XTND_REG16((void CYFAR *)(CYREG_CLKDIST_DCFG1_CFG0), 0x0000u);
 237:Generated_Source\PSoC5/cyfitter_cfg.c **** 	CY_SET_XTND_REG8((void CYFAR *)(CYREG_CLKDIST_DCFG1_CFG0 + 0x2u), 0x19u);
 238:Generated_Source\PSoC5/cyfitter_cfg.c **** 	CY_SET_XTND_REG16((void CYFAR *)(CYREG_CLKDIST_DCFG2_CFG0), 0x0000u);
 239:Generated_Source\PSoC5/cyfitter_cfg.c **** 	CY_SET_XTND_REG8((void CYFAR *)(CYREG_CLKDIST_DCFG2_CFG0 + 0x2u), 0x19u);
 240:Generated_Source\PSoC5/cyfitter_cfg.c **** 	CY_SET_XTND_REG16((void CYFAR *)(CYREG_CLKDIST_DCFG3_CFG0), 0x03A9u);
 241:Generated_Source\PSoC5/cyfitter_cfg.c **** 	CY_SET_XTND_REG8((void CYFAR *)(CYREG_CLKDIST_DCFG3_CFG0 + 0x2u), 0x18u);
 242:Generated_Source\PSoC5/cyfitter_cfg.c **** 
 243:Generated_Source\PSoC5/cyfitter_cfg.c **** 	/* Configure ILO based on settings from Clock DWR */
 244:Generated_Source\PSoC5/cyfitter_cfg.c **** 	CY_SET_XTND_REG8((void CYFAR *)(CYREG_SLOWCLK_ILO_CR0), 0x06u);
 245:Generated_Source\PSoC5/cyfitter_cfg.c **** 
 246:Generated_Source\PSoC5/cyfitter_cfg.c **** 	/* Configure IMO based on settings from Clock DWR */
 247:Generated_Source\PSoC5/cyfitter_cfg.c **** 	CY_SET_XTND_REG8((void CYFAR *)(CYREG_FASTCLK_IMO_CR), 0x52u);
 248:Generated_Source\PSoC5/cyfitter_cfg.c **** 	CY_SET_XTND_REG8((void CYFAR *)(CYREG_IMO_TR1), (CY_GET_XTND_REG8((void CYFAR *)CYREG_FLSHID_CUST_
 249:Generated_Source\PSoC5/cyfitter_cfg.c **** 
 250:Generated_Source\PSoC5/cyfitter_cfg.c **** 	/* Configure PLL based on settings from Clock DWR */
 251:Generated_Source\PSoC5/cyfitter_cfg.c **** 	CY_SET_XTND_REG16((void CYFAR *)(CYREG_FASTCLK_PLL_P), 0x0718u);
 252:Generated_Source\PSoC5/cyfitter_cfg.c **** 	CY_SET_XTND_REG16((void CYFAR *)(CYREG_FASTCLK_PLL_CFG0), 0x2251u);
 253:Generated_Source\PSoC5/cyfitter_cfg.c **** 	/* Wait up to 250us for the PLL to lock */
 254:Generated_Source\PSoC5/cyfitter_cfg.c **** 	pllLock = 0u;
 255:Generated_Source\PSoC5/cyfitter_cfg.c **** 	for (timeout = 250u / 10u; (timeout > 0u) && (pllLock != 0x03u); timeout--)
 256:Generated_Source\PSoC5/cyfitter_cfg.c **** 	{ 
 257:Generated_Source\PSoC5/cyfitter_cfg.c **** 		pllLock = 0x03u & ((uint8)((uint8)pllLock << 1) | ((CY_GET_XTND_REG8((void CYFAR *)CYREG_FASTCLK_
 258:Generated_Source\PSoC5/cyfitter_cfg.c **** 		CyDelayCycles(10u * 48u); /* Delay 10us based on 48MHz clock */
 259:Generated_Source\PSoC5/cyfitter_cfg.c **** 	}
 260:Generated_Source\PSoC5/cyfitter_cfg.c **** 	/* If we ran out of time the PLL didn't lock so go to the error function */
 261:Generated_Source\PSoC5/cyfitter_cfg.c **** 	if (timeout == 0u)
 262:Generated_Source\PSoC5/cyfitter_cfg.c **** 	{
 263:Generated_Source\PSoC5/cyfitter_cfg.c **** 		CyClockStartupError(CYCLOCKSTART_PLL_ERROR);
 264:Generated_Source\PSoC5/cyfitter_cfg.c **** 	}
 265:Generated_Source\PSoC5/cyfitter_cfg.c **** 
 266:Generated_Source\PSoC5/cyfitter_cfg.c **** 	/* Configure Bus/Master Clock based on settings from Clock DWR */
 267:Generated_Source\PSoC5/cyfitter_cfg.c **** 	CY_SET_XTND_REG16((void CYFAR *)(CYREG_CLKDIST_MSTR0), 0x0100u);
 268:Generated_Source\PSoC5/cyfitter_cfg.c **** 	CY_SET_XTND_REG8((void CYFAR *)(CYREG_CLKDIST_MSTR0), 0x07u);
 269:Generated_Source\PSoC5/cyfitter_cfg.c **** 	CY_SET_XTND_REG8((void CYFAR *)(CYREG_CLKDIST_BCFG0), 0x00u);
 270:Generated_Source\PSoC5/cyfitter_cfg.c **** 	CY_SET_XTND_REG8((void CYFAR *)(CYREG_CLKDIST_BCFG2), 0x48u);
 271:Generated_Source\PSoC5/cyfitter_cfg.c **** 	CY_SET_XTND_REG8((void CYFAR *)(CYREG_CLKDIST_MSTR0), 0x00u);
 272:Generated_Source\PSoC5/cyfitter_cfg.c **** 
 273:Generated_Source\PSoC5/cyfitter_cfg.c **** 	/* Configure USB Clock based on settings from Clock DWR */
ARM GAS  C:\Users\teru\AppData\Local\Temp\ccyFXhH4.s 			page 8


 274:Generated_Source\PSoC5/cyfitter_cfg.c **** 	CY_SET_XTND_REG8((void CYFAR *)(CYREG_CLKDIST_UCFG), 0x00u);
 275:Generated_Source\PSoC5/cyfitter_cfg.c **** 	CY_SET_XTND_REG8((void CYFAR *)(CYREG_CLKDIST_LD), 0x02u);
 276:Generated_Source\PSoC5/cyfitter_cfg.c **** 
 277:Generated_Source\PSoC5/cyfitter_cfg.c **** 	CY_SET_XTND_REG8((void CYFAR *)(CYREG_PM_ACT_CFG2), ((CY_GET_XTND_REG8((void CYFAR *)CYREG_PM_ACT_
 278:Generated_Source\PSoC5/cyfitter_cfg.c **** }
 279:Generated_Source\PSoC5/cyfitter_cfg.c **** 
 280:Generated_Source\PSoC5/cyfitter_cfg.c **** 
 281:Generated_Source\PSoC5/cyfitter_cfg.c **** /* Analog API Functions */
 282:Generated_Source\PSoC5/cyfitter_cfg.c **** 
 283:Generated_Source\PSoC5/cyfitter_cfg.c **** 
 284:Generated_Source\PSoC5/cyfitter_cfg.c **** /*******************************************************************************
 285:Generated_Source\PSoC5/cyfitter_cfg.c **** * Function Name: AnalogSetDefault
 286:Generated_Source\PSoC5/cyfitter_cfg.c **** ********************************************************************************
 287:Generated_Source\PSoC5/cyfitter_cfg.c **** *
 288:Generated_Source\PSoC5/cyfitter_cfg.c **** * Summary:
 289:Generated_Source\PSoC5/cyfitter_cfg.c **** *  Sets up the analog portions of the chip to default values based on chip
 290:Generated_Source\PSoC5/cyfitter_cfg.c **** *  configuration options from the project.
 291:Generated_Source\PSoC5/cyfitter_cfg.c **** *
 292:Generated_Source\PSoC5/cyfitter_cfg.c **** * Parameters:
 293:Generated_Source\PSoC5/cyfitter_cfg.c **** *  void
 294:Generated_Source\PSoC5/cyfitter_cfg.c **** *
 295:Generated_Source\PSoC5/cyfitter_cfg.c **** * Return:
 296:Generated_Source\PSoC5/cyfitter_cfg.c **** *  void
 297:Generated_Source\PSoC5/cyfitter_cfg.c **** *
 298:Generated_Source\PSoC5/cyfitter_cfg.c **** *******************************************************************************/
 299:Generated_Source\PSoC5/cyfitter_cfg.c **** static void AnalogSetDefault(void);
 300:Generated_Source\PSoC5/cyfitter_cfg.c **** static void AnalogSetDefault(void)
 301:Generated_Source\PSoC5/cyfitter_cfg.c **** {
 124              		.loc 1 301 0
 125              		.cfi_startproc
 126              		@ args = 0, pretend = 0, frame = 0
 127              		@ frame_needed = 0, uses_anonymous_args = 0
 128              		@ link register save eliminated.
 302:Generated_Source\PSoC5/cyfitter_cfg.c **** 	uint8 bg_xover_inl_trim = CY_GET_XTND_REG8((void CYFAR *)(CYREG_FLSHID_MFG_CFG_BG_XOVER_INL_TRIM +
 129              		.loc 1 302 0
 130 0000 064B     		ldr	r3, .L10
 131 0002 1B78     		ldrb	r3, [r3]	@ zero_extendqisi2
 132 0004 DBB2     		uxtb	r3, r3
 133              	.LVL12:
 303:Generated_Source\PSoC5/cyfitter_cfg.c **** 	CY_SET_XTND_REG8((void CYFAR *)(CYREG_BG_DFT0), (bg_xover_inl_trim & 0x07u));
 134              		.loc 1 303 0
 135 0006 03F00701 		and	r1, r3, #7
 136 000a 054A     		ldr	r2, .L10+4
 137 000c 1170     		strb	r1, [r2]
 304:Generated_Source\PSoC5/cyfitter_cfg.c **** 	CY_SET_XTND_REG8((void CYFAR *)(CYREG_BG_DFT1), ((bg_xover_inl_trim >> 4) & 0x0Fu));
 138              		.loc 1 304 0
 139 000e 1B09     		lsrs	r3, r3, #4
 140              	.LVL13:
 141 0010 0132     		adds	r2, r2, #1
 142 0012 1370     		strb	r3, [r2]
 305:Generated_Source\PSoC5/cyfitter_cfg.c **** 	CY_SET_XTND_REG8((void CYFAR *)CYREG_PUMP_CR0, 0x44u);
 143              		.loc 1 305 0
 144 0014 4422     		movs	r2, #68
 145 0016 034B     		ldr	r3, .L10+8
 146 0018 1A70     		strb	r2, [r3]
 147 001a 7047     		bx	lr
 148              	.L11:
ARM GAS  C:\Users\teru\AppData\Local\Temp\ccyFXhH4.s 			page 9


 149              		.align	2
 150              	.L10:
 151 001c CF010049 		.word	1224737231
 152 0020 6E580040 		.word	1073764462
 153 0024 76580040 		.word	1073764470
 154              		.cfi_endproc
 155              	.LFE6:
 156              		.size	AnalogSetDefault, .-AnalogSetDefault
 157              		.section	.text.ClockSetup,"ax",%progbits
 158              		.align	2
 159              		.thumb
 160              		.thumb_func
 161              		.type	ClockSetup, %function
 162              	ClockSetup:
 163              	.LFB5:
 228:Generated_Source\PSoC5/cyfitter_cfg.c **** 	uint32 timeout;
 164              		.loc 1 228 0
 165              		.cfi_startproc
 166              		@ args = 0, pretend = 0, frame = 0
 167              		@ frame_needed = 0, uses_anonymous_args = 0
 168 0000 38B5     		push	{r3, r4, r5, lr}
 169              		.cfi_def_cfa_offset 16
 170              		.cfi_offset 3, -16
 171              		.cfi_offset 4, -12
 172              		.cfi_offset 5, -8
 173              		.cfi_offset 14, -4
 234:Generated_Source\PSoC5/cyfitter_cfg.c **** 	CY_SET_XTND_REG8((void CYFAR *)(CYREG_CLKDIST_DCFG0_CFG0 + 0x2u), 0x19u);
 174              		.loc 1 234 0
 175 0002 0024     		movs	r4, #0
 176 0004 2A4B     		ldr	r3, .L18
 177 0006 1C80     		strh	r4, [r3]	@ movhi
 235:Generated_Source\PSoC5/cyfitter_cfg.c **** 	CY_SET_XTND_REG16((void CYFAR *)(CYREG_CLKDIST_DCFG1_CFG0), 0x0000u);
 178              		.loc 1 235 0
 179 0008 1925     		movs	r5, #25
 180 000a 0233     		adds	r3, r3, #2
 181 000c 1D70     		strb	r5, [r3]
 236:Generated_Source\PSoC5/cyfitter_cfg.c **** 	CY_SET_XTND_REG8((void CYFAR *)(CYREG_CLKDIST_DCFG1_CFG0 + 0x2u), 0x19u);
 182              		.loc 1 236 0
 183 000e 0233     		adds	r3, r3, #2
 184 0010 1C80     		strh	r4, [r3]	@ movhi
 237:Generated_Source\PSoC5/cyfitter_cfg.c **** 	CY_SET_XTND_REG16((void CYFAR *)(CYREG_CLKDIST_DCFG2_CFG0), 0x0000u);
 185              		.loc 1 237 0
 186 0012 0233     		adds	r3, r3, #2
 187 0014 1D70     		strb	r5, [r3]
 238:Generated_Source\PSoC5/cyfitter_cfg.c **** 	CY_SET_XTND_REG8((void CYFAR *)(CYREG_CLKDIST_DCFG2_CFG0 + 0x2u), 0x19u);
 188              		.loc 1 238 0
 189 0016 0233     		adds	r3, r3, #2
 190 0018 1C80     		strh	r4, [r3]	@ movhi
 239:Generated_Source\PSoC5/cyfitter_cfg.c **** 	CY_SET_XTND_REG16((void CYFAR *)(CYREG_CLKDIST_DCFG3_CFG0), 0x03A9u);
 191              		.loc 1 239 0
 192 001a 0233     		adds	r3, r3, #2
 193 001c 1D70     		strb	r5, [r3]
 240:Generated_Source\PSoC5/cyfitter_cfg.c **** 	CY_SET_XTND_REG8((void CYFAR *)(CYREG_CLKDIST_DCFG3_CFG0 + 0x2u), 0x18u);
 194              		.loc 1 240 0
 195 001e 40F2A932 		movw	r2, #937
 196 0022 0233     		adds	r3, r3, #2
 197 0024 1A80     		strh	r2, [r3]	@ movhi
ARM GAS  C:\Users\teru\AppData\Local\Temp\ccyFXhH4.s 			page 10


 241:Generated_Source\PSoC5/cyfitter_cfg.c **** 
 198              		.loc 1 241 0
 199 0026 1822     		movs	r2, #24
 200 0028 0233     		adds	r3, r3, #2
 201 002a 1A70     		strb	r2, [r3]
 244:Generated_Source\PSoC5/cyfitter_cfg.c **** 
 202              		.loc 1 244 0
 203 002c 0622     		movs	r2, #6
 204 002e 03F27223 		addw	r3, r3, #626
 205 0032 1A70     		strb	r2, [r3]
 247:Generated_Source\PSoC5/cyfitter_cfg.c **** 	CY_SET_XTND_REG8((void CYFAR *)(CYREG_IMO_TR1), (CY_GET_XTND_REG8((void CYFAR *)CYREG_FLSHID_CUST_
 206              		.loc 1 247 0
 207 0034 5222     		movs	r2, #82
 208 0036 A3F58073 		sub	r3, r3, #256
 209 003a 1A70     		strb	r2, [r3]
 248:Generated_Source\PSoC5/cyfitter_cfg.c **** 
 210              		.loc 1 248 0
 211 003c 1D4B     		ldr	r3, .L18+4
 212 003e 1B78     		ldrb	r3, [r3]	@ zero_extendqisi2
 213 0040 DBB2     		uxtb	r3, r3
 214 0042 1D4A     		ldr	r2, .L18+8
 215 0044 1370     		strb	r3, [r2]
 251:Generated_Source\PSoC5/cyfitter_cfg.c **** 	CY_SET_XTND_REG16((void CYFAR *)(CYREG_FASTCLK_PLL_CFG0), 0x2251u);
 216              		.loc 1 251 0
 217 0046 4FF4E362 		mov	r2, #1816
 218 004a 1C4B     		ldr	r3, .L18+12
 219 004c 1A80     		strh	r2, [r3]	@ movhi
 252:Generated_Source\PSoC5/cyfitter_cfg.c **** 	/* Wait up to 250us for the PLL to lock */
 220              		.loc 1 252 0
 221 004e 42F25122 		movw	r2, #8785
 222 0052 023B     		subs	r3, r3, #2
 223 0054 1A80     		strh	r2, [r3]	@ movhi
 224              	.LVL14:
 255:Generated_Source\PSoC5/cyfitter_cfg.c **** 	{ 
 225              		.loc 1 255 0
 226 0056 0CE0     		b	.L13
 227              	.LVL15:
 228              	.L15:
 257:Generated_Source\PSoC5/cyfitter_cfg.c **** 		CyDelayCycles(10u * 48u); /* Delay 10us based on 48MHz clock */
 229              		.loc 1 257 0 discriminator 4
 230 0058 194B     		ldr	r3, .L18+16
 231 005a 1B78     		ldrb	r3, [r3]	@ zero_extendqisi2
 232 005c 03F00103 		and	r3, r3, #1
 233 0060 43EA4404 		orr	r4, r3, r4, lsl #1
 234              	.LVL16:
 235 0064 04F00304 		and	r4, r4, #3
 236              	.LVL17:
 258:Generated_Source\PSoC5/cyfitter_cfg.c **** 	}
 237              		.loc 1 258 0 discriminator 4
 238 0068 4FF4F070 		mov	r0, #480
 239 006c FFF7FEFF 		bl	CyDelayCycles
 240              	.LVL18:
 255:Generated_Source\PSoC5/cyfitter_cfg.c **** 	{ 
 241              		.loc 1 255 0 discriminator 4
 242 0070 013D     		subs	r5, r5, #1
 243              	.LVL19:
 244              	.L13:
ARM GAS  C:\Users\teru\AppData\Local\Temp\ccyFXhH4.s 			page 11


 255:Generated_Source\PSoC5/cyfitter_cfg.c **** 	{ 
 245              		.loc 1 255 0 is_stmt 0 discriminator 1
 246 0072 0DB1     		cbz	r5, .L14
 255:Generated_Source\PSoC5/cyfitter_cfg.c **** 	{ 
 247              		.loc 1 255 0 discriminator 3
 248 0074 032C     		cmp	r4, #3
 249 0076 EFD1     		bne	.L15
 250              	.L14:
 261:Generated_Source\PSoC5/cyfitter_cfg.c **** 	{
 251              		.loc 1 261 0 is_stmt 1
 252 0078 15B9     		cbnz	r5, .L16
 263:Generated_Source\PSoC5/cyfitter_cfg.c **** 	}
 253              		.loc 1 263 0
 254 007a 0320     		movs	r0, #3
 255 007c FFF7FEFF 		bl	CyClockStartupError
 256              	.LVL20:
 257              	.L16:
 267:Generated_Source\PSoC5/cyfitter_cfg.c **** 	CY_SET_XTND_REG8((void CYFAR *)(CYREG_CLKDIST_MSTR0), 0x07u);
 258              		.loc 1 267 0
 259 0080 104A     		ldr	r2, .L18+20
 260 0082 4FF48073 		mov	r3, #256
 261 0086 1380     		strh	r3, [r2]	@ movhi
 268:Generated_Source\PSoC5/cyfitter_cfg.c **** 	CY_SET_XTND_REG8((void CYFAR *)(CYREG_CLKDIST_BCFG0), 0x00u);
 262              		.loc 1 268 0
 263 0088 0723     		movs	r3, #7
 264 008a 1370     		strb	r3, [r2]
 269:Generated_Source\PSoC5/cyfitter_cfg.c **** 	CY_SET_XTND_REG8((void CYFAR *)(CYREG_CLKDIST_BCFG2), 0x48u);
 265              		.loc 1 269 0
 266 008c 0023     		movs	r3, #0
 267 008e 0E49     		ldr	r1, .L18+24
 268 0090 0B70     		strb	r3, [r1]
 270:Generated_Source\PSoC5/cyfitter_cfg.c **** 	CY_SET_XTND_REG8((void CYFAR *)(CYREG_CLKDIST_MSTR0), 0x00u);
 269              		.loc 1 270 0
 270 0092 4820     		movs	r0, #72
 271 0094 0231     		adds	r1, r1, #2
 272 0096 0870     		strb	r0, [r1]
 271:Generated_Source\PSoC5/cyfitter_cfg.c **** 
 273              		.loc 1 271 0
 274 0098 1370     		strb	r3, [r2]
 274:Generated_Source\PSoC5/cyfitter_cfg.c **** 	CY_SET_XTND_REG8((void CYFAR *)(CYREG_CLKDIST_LD), 0x02u);
 275              		.loc 1 274 0
 276 009a 0532     		adds	r2, r2, #5
 277 009c 1370     		strb	r3, [r2]
 275:Generated_Source\PSoC5/cyfitter_cfg.c **** 
 278              		.loc 1 275 0
 279 009e 0222     		movs	r2, #2
 280 00a0 0A4B     		ldr	r3, .L18+28
 281 00a2 1A70     		strb	r2, [r3]
 277:Generated_Source\PSoC5/cyfitter_cfg.c **** }
 282              		.loc 1 277 0
 283 00a4 0A4A     		ldr	r2, .L18+32
 284 00a6 1378     		ldrb	r3, [r2]	@ zero_extendqisi2
 285 00a8 43F00F03 		orr	r3, r3, #15
 286 00ac 1370     		strb	r3, [r2]
 287 00ae 38BD     		pop	{r3, r4, r5, pc}
 288              	.LVL21:
 289              	.L19:
ARM GAS  C:\Users\teru\AppData\Local\Temp\ccyFXhH4.s 			page 12


 290              		.align	2
 291              	.L18:
 292 00b0 80400040 		.word	1073758336
 293 00b4 0F010049 		.word	1224737039
 294 00b8 A1460040 		.word	1073759905
 295 00bc 22420040 		.word	1073758754
 296 00c0 25420040 		.word	1073758757
 297 00c4 04400040 		.word	1073758212
 298 00c8 06400040 		.word	1073758214
 299 00cc 01400040 		.word	1073758209
 300 00d0 A2430040 		.word	1073759138
 301              		.cfi_endproc
 302              	.LFE5:
 303              		.size	ClockSetup, .-ClockSetup
 304              		.section	.text.CYMEMZERO,"ax",%progbits
 305              		.align	2
 306              		.thumb
 307              		.thumb_func
 308              		.type	CYMEMZERO, %function
 309              	CYMEMZERO:
 310              	.LFB0:
  78:Generated_Source\PSoC5/cyfitter_cfg.c **** 	(void)memset(s, 0, n);
 311              		.loc 1 78 0
 312              		.cfi_startproc
 313              		@ args = 0, pretend = 0, frame = 0
 314              		@ frame_needed = 0, uses_anonymous_args = 0
 315              	.LVL22:
 316 0000 08B5     		push	{r3, lr}
 317              		.cfi_def_cfa_offset 8
 318              		.cfi_offset 3, -8
 319              		.cfi_offset 14, -4
  79:Generated_Source\PSoC5/cyfitter_cfg.c **** }
 320              		.loc 1 79 0
 321 0002 0A46     		mov	r2, r1
 322 0004 0021     		movs	r1, #0
 323              	.LVL23:
 324 0006 FFF7FEFF 		bl	memset
 325              	.LVL24:
 326 000a 08BD     		pop	{r3, pc}
 327              		.cfi_endproc
 328              	.LFE0:
 329              		.size	CYMEMZERO, .-CYMEMZERO
 330              		.section	.text.CYCONFIGCPY,"ax",%progbits
 331              		.align	2
 332              		.thumb
 333              		.thumb_func
 334              		.type	CYCONFIGCPY, %function
 335              	CYCONFIGCPY:
 336              	.LFB1:
  85:Generated_Source\PSoC5/cyfitter_cfg.c **** 	(void)memcpy(dest, src, n);
 337              		.loc 1 85 0
 338              		.cfi_startproc
 339              		@ args = 0, pretend = 0, frame = 0
 340              		@ frame_needed = 0, uses_anonymous_args = 0
 341              	.LVL25:
 342 0000 08B5     		push	{r3, lr}
 343              		.cfi_def_cfa_offset 8
ARM GAS  C:\Users\teru\AppData\Local\Temp\ccyFXhH4.s 			page 13


 344              		.cfi_offset 3, -8
 345              		.cfi_offset 14, -4
  86:Generated_Source\PSoC5/cyfitter_cfg.c **** }
 346              		.loc 1 86 0
 347 0002 FFF7FEFF 		bl	memcpy
 348              	.LVL26:
 349 0006 08BD     		pop	{r3, pc}
 350              		.cfi_endproc
 351              	.LFE1:
 352              		.size	CYCONFIGCPY, .-CYCONFIGCPY
 353              		.section	.text.SetAnalogRoutingPumps,"ax",%progbits
 354              		.align	2
 355              		.global	SetAnalogRoutingPumps
 356              		.thumb
 357              		.thumb_func
 358              		.type	SetAnalogRoutingPumps, %function
 359              	SetAnalogRoutingPumps:
 360              	.LFB7:
 306:Generated_Source\PSoC5/cyfitter_cfg.c **** }
 307:Generated_Source\PSoC5/cyfitter_cfg.c **** 
 308:Generated_Source\PSoC5/cyfitter_cfg.c **** 
 309:Generated_Source\PSoC5/cyfitter_cfg.c **** /*******************************************************************************
 310:Generated_Source\PSoC5/cyfitter_cfg.c **** * Function Name: SetAnalogRoutingPumps
 311:Generated_Source\PSoC5/cyfitter_cfg.c **** ********************************************************************************
 312:Generated_Source\PSoC5/cyfitter_cfg.c **** *
 313:Generated_Source\PSoC5/cyfitter_cfg.c **** * Summary:
 314:Generated_Source\PSoC5/cyfitter_cfg.c **** * Enables or disables the analog pumps feeding analog routing switches.
 315:Generated_Source\PSoC5/cyfitter_cfg.c **** * Intended to be called at startup, based on the Vdda system configuration;
 316:Generated_Source\PSoC5/cyfitter_cfg.c **** * may be called during operation when the user informs us that the Vdda voltage
 317:Generated_Source\PSoC5/cyfitter_cfg.c **** * crossed the pump threshold.
 318:Generated_Source\PSoC5/cyfitter_cfg.c **** *
 319:Generated_Source\PSoC5/cyfitter_cfg.c **** * Parameters:
 320:Generated_Source\PSoC5/cyfitter_cfg.c **** *  enabled - 1 to enable the pumps, 0 to disable the pumps
 321:Generated_Source\PSoC5/cyfitter_cfg.c **** *
 322:Generated_Source\PSoC5/cyfitter_cfg.c **** * Return:
 323:Generated_Source\PSoC5/cyfitter_cfg.c **** *  void
 324:Generated_Source\PSoC5/cyfitter_cfg.c **** *
 325:Generated_Source\PSoC5/cyfitter_cfg.c **** *******************************************************************************/
 326:Generated_Source\PSoC5/cyfitter_cfg.c **** void SetAnalogRoutingPumps(uint8 enabled)
 327:Generated_Source\PSoC5/cyfitter_cfg.c **** {
 361              		.loc 1 327 0
 362              		.cfi_startproc
 363              		@ args = 0, pretend = 0, frame = 0
 364              		@ frame_needed = 0, uses_anonymous_args = 0
 365              		@ link register save eliminated.
 366              	.LVL27:
 328:Generated_Source\PSoC5/cyfitter_cfg.c **** 	uint8 regValue = CY_GET_XTND_REG8((void CYFAR *)CYREG_PUMP_CR0);
 367              		.loc 1 328 0
 368 0000 024A     		ldr	r2, .L25
 369 0002 1378     		ldrb	r3, [r2]	@ zero_extendqisi2
 370 0004 DBB2     		uxtb	r3, r3
 371              	.LVL28:
 329:Generated_Source\PSoC5/cyfitter_cfg.c **** 	if (enabled != 0u)
 330:Generated_Source\PSoC5/cyfitter_cfg.c **** 	{
 331:Generated_Source\PSoC5/cyfitter_cfg.c **** 		regValue |= 0x00u;
 332:Generated_Source\PSoC5/cyfitter_cfg.c **** 	}
 333:Generated_Source\PSoC5/cyfitter_cfg.c **** 	else
ARM GAS  C:\Users\teru\AppData\Local\Temp\ccyFXhH4.s 			page 14


 334:Generated_Source\PSoC5/cyfitter_cfg.c **** 	{
 335:Generated_Source\PSoC5/cyfitter_cfg.c **** 		regValue &= (uint8)~0x00u;
 336:Generated_Source\PSoC5/cyfitter_cfg.c **** 	}
 337:Generated_Source\PSoC5/cyfitter_cfg.c **** 	CY_SET_XTND_REG8((void CYFAR *)CYREG_PUMP_CR0, regValue);
 372              		.loc 1 337 0
 373 0006 1370     		strb	r3, [r2]
 374 0008 7047     		bx	lr
 375              	.L26:
 376 000a 00BF     		.align	2
 377              	.L25:
 378 000c 76580040 		.word	1073764470
 379              		.cfi_endproc
 380              	.LFE7:
 381              		.size	SetAnalogRoutingPumps, .-SetAnalogRoutingPumps
 382              		.section	.text.cyfitter_cfg,"ax",%progbits
 383              		.align	2
 384              		.global	cyfitter_cfg
 385              		.thumb
 386              		.thumb_func
 387              		.type	cyfitter_cfg, %function
 388              	cyfitter_cfg:
 389              	.LFB8:
 338:Generated_Source\PSoC5/cyfitter_cfg.c **** }
 339:Generated_Source\PSoC5/cyfitter_cfg.c **** 
 340:Generated_Source\PSoC5/cyfitter_cfg.c **** 
 341:Generated_Source\PSoC5/cyfitter_cfg.c **** 
 342:Generated_Source\PSoC5/cyfitter_cfg.c **** 
 343:Generated_Source\PSoC5/cyfitter_cfg.c **** /*******************************************************************************
 344:Generated_Source\PSoC5/cyfitter_cfg.c **** * Function Name: cyfitter_cfg
 345:Generated_Source\PSoC5/cyfitter_cfg.c **** ********************************************************************************
 346:Generated_Source\PSoC5/cyfitter_cfg.c **** * Summary:
 347:Generated_Source\PSoC5/cyfitter_cfg.c **** *  This function is called by the start-up code for the selected device. It
 348:Generated_Source\PSoC5/cyfitter_cfg.c **** *  performs all of the necessary device configuration based on the design
 349:Generated_Source\PSoC5/cyfitter_cfg.c **** *  settings.  This includes settings from the Design Wide Resources (DWR) such
 350:Generated_Source\PSoC5/cyfitter_cfg.c **** *  as Clocks and Pins as well as any component configuration that is necessary.
 351:Generated_Source\PSoC5/cyfitter_cfg.c **** *
 352:Generated_Source\PSoC5/cyfitter_cfg.c **** * Parameters:
 353:Generated_Source\PSoC5/cyfitter_cfg.c **** *   void
 354:Generated_Source\PSoC5/cyfitter_cfg.c **** *
 355:Generated_Source\PSoC5/cyfitter_cfg.c **** * Return:
 356:Generated_Source\PSoC5/cyfitter_cfg.c **** *   void
 357:Generated_Source\PSoC5/cyfitter_cfg.c **** *
 358:Generated_Source\PSoC5/cyfitter_cfg.c **** *******************************************************************************/
 359:Generated_Source\PSoC5/cyfitter_cfg.c **** 
 360:Generated_Source\PSoC5/cyfitter_cfg.c **** void cyfitter_cfg(void)
 361:Generated_Source\PSoC5/cyfitter_cfg.c **** {
 390              		.loc 1 361 0
 391              		.cfi_startproc
 392              		@ args = 0, pretend = 0, frame = 0
 393              		@ frame_needed = 0, uses_anonymous_args = 0
 394 0000 38B5     		push	{r3, r4, r5, lr}
 395              		.cfi_def_cfa_offset 16
 396              		.cfi_offset 3, -16
 397              		.cfi_offset 4, -12
 398              		.cfi_offset 5, -8
 399              		.cfi_offset 14, -4
 362:Generated_Source\PSoC5/cyfitter_cfg.c **** #ifdef CYGlobalIntDisable
ARM GAS  C:\Users\teru\AppData\Local\Temp\ccyFXhH4.s 			page 15


 363:Generated_Source\PSoC5/cyfitter_cfg.c **** 	/* Disable interrupts by default. Let user enable if/when they want. */
 364:Generated_Source\PSoC5/cyfitter_cfg.c **** 	CYGlobalIntDisable
 400              		.loc 1 364 0
 401              		.syntax unified
 402              	@ 364 "Generated_Source\PSoC5\cyfitter_cfg.c" 1
 403 0002 72B6     		CPSID   i
 404              	@ 0 "" 2
 365:Generated_Source\PSoC5/cyfitter_cfg.c **** #endif
 366:Generated_Source\PSoC5/cyfitter_cfg.c **** 
 367:Generated_Source\PSoC5/cyfitter_cfg.c **** 
 368:Generated_Source\PSoC5/cyfitter_cfg.c **** 	/* Set Flash Cycles based on max possible frequency in case a glitch occurs during ClockSetup(). *
 369:Generated_Source\PSoC5/cyfitter_cfg.c **** 	CY_SET_XTND_REG8((void CYFAR *)(CYREG_CACHE_CC_CTL), (((CYDEV_INSTRUCT_CACHE_ENABLED) != 0) ? 0x61
 405              		.loc 1 369 0
 406              		.thumb
 407              		.syntax unified
 408 0004 6122     		movs	r2, #97
 409 0006 384B     		ldr	r3, .L33
 410 0008 1A70     		strb	r2, [r3]
 370:Generated_Source\PSoC5/cyfitter_cfg.c **** 	/* Setup clocks based on selections from Clock DWR */
 371:Generated_Source\PSoC5/cyfitter_cfg.c **** 	ClockSetup();
 411              		.loc 1 371 0
 412 000a FFF7FEFF 		bl	ClockSetup
 413              	.LVL29:
 372:Generated_Source\PSoC5/cyfitter_cfg.c **** 	/* Enable/Disable Debug functionality based on settings from System DWR */
 373:Generated_Source\PSoC5/cyfitter_cfg.c **** 	CY_SET_XTND_REG8((void CYFAR *)CYREG_MLOGIC_DEBUG, (CY_GET_XTND_REG8((void CYFAR *)CYREG_MLOGIC_DE
 414              		.loc 1 373 0
 415 000e 374A     		ldr	r2, .L33+4
 416 0010 1378     		ldrb	r3, [r2]	@ zero_extendqisi2
 417 0012 43F00403 		orr	r3, r3, #4
 418 0016 1370     		strb	r3, [r2]
 419              	.LVL30:
 420              	.LBB3:
 374:Generated_Source\PSoC5/cyfitter_cfg.c **** 
 375:Generated_Source\PSoC5/cyfitter_cfg.c **** 	{
 376:Generated_Source\PSoC5/cyfitter_cfg.c **** 
 377:Generated_Source\PSoC5/cyfitter_cfg.c **** 		CYPACKED typedef struct {
 378:Generated_Source\PSoC5/cyfitter_cfg.c **** 			void CYFAR *address;
 379:Generated_Source\PSoC5/cyfitter_cfg.c **** 			uint16 size;
 380:Generated_Source\PSoC5/cyfitter_cfg.c **** 		} CYPACKED_ATTR cfg_memset_t;
 381:Generated_Source\PSoC5/cyfitter_cfg.c **** 
 382:Generated_Source\PSoC5/cyfitter_cfg.c **** 
 383:Generated_Source\PSoC5/cyfitter_cfg.c **** 		CYPACKED typedef struct {
 384:Generated_Source\PSoC5/cyfitter_cfg.c **** 			void CYFAR *dest;
 385:Generated_Source\PSoC5/cyfitter_cfg.c **** 			const void CYFAR *src;
 386:Generated_Source\PSoC5/cyfitter_cfg.c **** 			uint16 size;
 387:Generated_Source\PSoC5/cyfitter_cfg.c **** 		} CYPACKED_ATTR cfg_memcpy_t;
 388:Generated_Source\PSoC5/cyfitter_cfg.c **** 
 389:Generated_Source\PSoC5/cyfitter_cfg.c **** 		static const cfg_memset_t CYCODE cfg_memset_list[] = {
 390:Generated_Source\PSoC5/cyfitter_cfg.c **** 			/* address, size */
 391:Generated_Source\PSoC5/cyfitter_cfg.c **** 			{(void CYFAR *)(CYREG_TMR0_CFG0), 12u},
 392:Generated_Source\PSoC5/cyfitter_cfg.c **** 			{(void CYFAR *)(CYREG_PRT2_DR), 80u},
 393:Generated_Source\PSoC5/cyfitter_cfg.c **** 			{(void CYFAR *)(CYDEV_UCFG_B0_P0_U0_BASE), 4096u},
 394:Generated_Source\PSoC5/cyfitter_cfg.c **** 			{(void CYFAR *)(CYDEV_UCFG_B1_P2_U0_BASE), 2048u},
 395:Generated_Source\PSoC5/cyfitter_cfg.c **** 			{(void CYFAR *)(CYDEV_UCFG_DSI0_BASE), 2560u},
 396:Generated_Source\PSoC5/cyfitter_cfg.c **** 			{(void CYFAR *)(CYDEV_UCFG_DSI12_BASE), 512u},
 397:Generated_Source\PSoC5/cyfitter_cfg.c **** 			{(void CYFAR *)(CYREG_BCTL1_MDCLK_EN), 16u},
 398:Generated_Source\PSoC5/cyfitter_cfg.c **** 		};
ARM GAS  C:\Users\teru\AppData\Local\Temp\ccyFXhH4.s 			page 16


 399:Generated_Source\PSoC5/cyfitter_cfg.c **** 
 400:Generated_Source\PSoC5/cyfitter_cfg.c **** 		static const cfg_memcpy_t CYCODE cfg_memcpy_list [] = {
 401:Generated_Source\PSoC5/cyfitter_cfg.c **** 			/* dest, src, size */
 402:Generated_Source\PSoC5/cyfitter_cfg.c **** 			{(void CYFAR *)(CYREG_BCTL0_MDCLK_EN), BS_UCFG_BCTL0_VAL, 16u},
 403:Generated_Source\PSoC5/cyfitter_cfg.c **** 		};
 404:Generated_Source\PSoC5/cyfitter_cfg.c **** 
 405:Generated_Source\PSoC5/cyfitter_cfg.c **** 		uint8 CYDATA i;
 406:Generated_Source\PSoC5/cyfitter_cfg.c **** 
 407:Generated_Source\PSoC5/cyfitter_cfg.c **** 		/* Zero out critical memory blocks before beginning configuration */
 408:Generated_Source\PSoC5/cyfitter_cfg.c **** 		for (i = 0u; i < (sizeof(cfg_memset_list)/sizeof(cfg_memset_list[0])); i++)
 421              		.loc 1 408 0
 422 0018 0024     		movs	r4, #0
 423 001a 0CE0     		b	.L28
 424              	.LVL31:
 425              	.L29:
 426              	.LBB4:
 409:Generated_Source\PSoC5/cyfitter_cfg.c **** 		{
 410:Generated_Source\PSoC5/cyfitter_cfg.c **** 			const cfg_memset_t CYCODE * CYDATA ms = &cfg_memset_list[i];
 411:Generated_Source\PSoC5/cyfitter_cfg.c **** 			CYMEMZERO(ms->address, (size_t)(uint32)(ms->size));
 427              		.loc 1 411 0 discriminator 3
 428 001c 344D     		ldr	r5, .L33+8
 429 001e 6300     		lsls	r3, r4, #1
 430 0020 1919     		adds	r1, r3, r4
 431 0022 4A00     		lsls	r2, r1, #1
 432 0024 1146     		mov	r1, r2
 433 0026 2A44     		add	r2, r2, r5
 434 0028 0846     		mov	r0, r1
 435 002a 9188     		ldrh	r1, [r2, #4]
 436 002c 2858     		ldr	r0, [r5, r0]	@ unaligned
 437 002e FFF7FEFF 		bl	CYMEMZERO
 438              	.LVL32:
 439              	.LBE4:
 408:Generated_Source\PSoC5/cyfitter_cfg.c **** 		{
 440              		.loc 1 408 0 discriminator 3
 441 0032 0134     		adds	r4, r4, #1
 442              	.LVL33:
 443 0034 E4B2     		uxtb	r4, r4
 444              	.LVL34:
 445              	.L28:
 408:Generated_Source\PSoC5/cyfitter_cfg.c **** 		{
 446              		.loc 1 408 0 is_stmt 0 discriminator 1
 447 0036 062C     		cmp	r4, #6
 448 0038 F0D9     		bls	.L29
 449 003a 0024     		movs	r4, #0
 450              	.LVL35:
 451 003c 0BE0     		b	.L30
 452              	.LVL36:
 453              	.L31:
 454              	.LBB5:
 412:Generated_Source\PSoC5/cyfitter_cfg.c **** 		}
 413:Generated_Source\PSoC5/cyfitter_cfg.c **** 
 414:Generated_Source\PSoC5/cyfitter_cfg.c **** 		/* Copy device configuration data into registers */
 415:Generated_Source\PSoC5/cyfitter_cfg.c **** 		for (i = 0u; i < (sizeof(cfg_memcpy_list)/sizeof(cfg_memcpy_list[0])); i++)
 416:Generated_Source\PSoC5/cyfitter_cfg.c **** 		{
 417:Generated_Source\PSoC5/cyfitter_cfg.c **** 			const cfg_memcpy_t CYCODE * CYDATA mc = &cfg_memcpy_list[i];
 418:Generated_Source\PSoC5/cyfitter_cfg.c **** 			void * CYDATA destPtr = mc->dest;
 455              		.loc 1 418 0 is_stmt 1 discriminator 3
ARM GAS  C:\Users\teru\AppData\Local\Temp\ccyFXhH4.s 			page 17


 456 003e 2C49     		ldr	r1, .L33+8
 457 0040 A300     		lsls	r3, r4, #2
 458 0042 1819     		adds	r0, r3, r4
 459 0044 4200     		lsls	r2, r0, #1
 460 0046 8818     		adds	r0, r1, r2
 461              	.LVL37:
 419:Generated_Source\PSoC5/cyfitter_cfg.c **** 			const void * CYDATA srcPtr = mc->src;
 420:Generated_Source\PSoC5/cyfitter_cfg.c **** 			uint16 CYDATA numBytes = mc->size;
 421:Generated_Source\PSoC5/cyfitter_cfg.c **** 			CYCONFIGCPY(destPtr, srcPtr, numBytes);
 462              		.loc 1 421 0 discriminator 3
 463 0048 1022     		movs	r2, #16
 464 004a 016B     		ldr	r1, [r0, #48]	@ unaligned
 465              	.LVL38:
 466 004c C06A     		ldr	r0, [r0, #44]	@ unaligned
 467              	.LVL39:
 468 004e FFF7FEFF 		bl	CYCONFIGCPY
 469              	.LVL40:
 470              	.LBE5:
 415:Generated_Source\PSoC5/cyfitter_cfg.c **** 		{
 471              		.loc 1 415 0 discriminator 3
 472 0052 0134     		adds	r4, r4, #1
 473              	.LVL41:
 474 0054 E4B2     		uxtb	r4, r4
 475              	.LVL42:
 476              	.L30:
 415:Generated_Source\PSoC5/cyfitter_cfg.c **** 		{
 477              		.loc 1 415 0 is_stmt 0 discriminator 1
 478 0056 002C     		cmp	r4, #0
 479 0058 F1D0     		beq	.L31
 422:Generated_Source\PSoC5/cyfitter_cfg.c **** 		}
 423:Generated_Source\PSoC5/cyfitter_cfg.c **** 
 424:Generated_Source\PSoC5/cyfitter_cfg.c **** 		cfg_write_bytes32(cy_cfg_addr_table, cy_cfg_data_table);
 480              		.loc 1 424 0 is_stmt 1
 481 005a 2649     		ldr	r1, .L33+12
 482 005c 4FF09040 		mov	r0, #1207959552
 483 0060 FFF7FEFF 		bl	cfg_write_bytes32
 484              	.LVL43:
 425:Generated_Source\PSoC5/cyfitter_cfg.c **** 
 426:Generated_Source\PSoC5/cyfitter_cfg.c **** 		/* B0_P3_U1_CFG24 Starting address: CYDEV_UCFG_B0_P3_U1_CFG24 */
 427:Generated_Source\PSoC5/cyfitter_cfg.c **** 		CY_SET_XTND_REG32((void CYFAR *)(CYREG_B0_P3_U1_CFG24), 0x44040404u);
 485              		.loc 1 427 0
 486 0064 244A     		ldr	r2, .L33+16
 487 0066 254B     		ldr	r3, .L33+20
 488 0068 1A60     		str	r2, [r3]
 428:Generated_Source\PSoC5/cyfitter_cfg.c **** 
 429:Generated_Source\PSoC5/cyfitter_cfg.c **** 		/* B1_P2_U1_CFG24 Starting address: CYDEV_UCFG_B1_P2_U1_CFG24 */
 430:Generated_Source\PSoC5/cyfitter_cfg.c **** 		CY_SET_XTND_REG32((void CYFAR *)(CYREG_B1_P2_U1_CFG24), 0x84040404u);
 489              		.loc 1 430 0
 490 006a 254B     		ldr	r3, .L33+24
 491 006c 254A     		ldr	r2, .L33+28
 492 006e 1360     		str	r3, [r2]
 431:Generated_Source\PSoC5/cyfitter_cfg.c **** 
 432:Generated_Source\PSoC5/cyfitter_cfg.c **** 		/* B1_P4_U0_CFG24 Starting address: CYDEV_UCFG_B1_P4_U0_CFG24 */
 433:Generated_Source\PSoC5/cyfitter_cfg.c **** 		CY_SET_XTND_REG32((void CYFAR *)(CYREG_B1_P4_U0_CFG24), 0x84040404u);
 493              		.loc 1 433 0
 494 0070 02F56072 		add	r2, r2, #896
 495 0074 1360     		str	r3, [r2]
ARM GAS  C:\Users\teru\AppData\Local\Temp\ccyFXhH4.s 			page 18


 434:Generated_Source\PSoC5/cyfitter_cfg.c **** 
 435:Generated_Source\PSoC5/cyfitter_cfg.c **** 		/* Enable digital routing */
 436:Generated_Source\PSoC5/cyfitter_cfg.c **** 		CY_SET_XTND_REG8((void CYFAR *)CYREG_BCTL0_BANK_CTL, CY_GET_XTND_REG8((void CYFAR *)CYREG_BCTL0_B
 496              		.loc 1 436 0
 497 0076 02F55E52 		add	r2, r2, #14208
 498 007a 2B32     		adds	r2, r2, #43
 499 007c 1378     		ldrb	r3, [r2]	@ zero_extendqisi2
 500 007e 43F00203 		orr	r3, r3, #2
 501 0082 1370     		strb	r3, [r2]
 437:Generated_Source\PSoC5/cyfitter_cfg.c **** 		CY_SET_XTND_REG8((void CYFAR *)CYREG_BCTL1_BANK_CTL, CY_GET_XTND_REG8((void CYFAR *)CYREG_BCTL1_B
 502              		.loc 1 437 0
 503 0084 1032     		adds	r2, r2, #16
 504 0086 1378     		ldrb	r3, [r2]	@ zero_extendqisi2
 505 0088 43F00203 		orr	r3, r3, #2
 506 008c 1370     		strb	r3, [r2]
 438:Generated_Source\PSoC5/cyfitter_cfg.c **** 
 439:Generated_Source\PSoC5/cyfitter_cfg.c **** 		/* Enable UDB array */
 440:Generated_Source\PSoC5/cyfitter_cfg.c **** 		CY_SET_XTND_REG8((void CYFAR *)CYREG_PM_ACT_CFG0, CY_GET_XTND_REG8((void CYFAR *)CYREG_PM_ACT_CFG
 507              		.loc 1 440 0
 508 008e 1E4C     		ldr	r4, .L33+32
 509              	.LVL44:
 510 0090 2378     		ldrb	r3, [r4]	@ zero_extendqisi2
 511 0092 43F04003 		orr	r3, r3, #64
 512 0096 2370     		strb	r3, [r4]
 441:Generated_Source\PSoC5/cyfitter_cfg.c **** 		CY_SET_XTND_REG8((void CYFAR *)CYREG_PM_AVAIL_CR2, CY_GET_XTND_REG8((void CYFAR *)CYREG_PM_AVAIL_
 513              		.loc 1 441 0
 514 0098 A2F58632 		sub	r2, r2, #68608
 515 009c 513A     		subs	r2, r2, #81
 516 009e 1378     		ldrb	r3, [r2]	@ zero_extendqisi2
 517 00a0 43F01003 		orr	r3, r3, #16
 518 00a4 1370     		strb	r3, [r2]
 519              	.LBE3:
 442:Generated_Source\PSoC5/cyfitter_cfg.c **** 	}
 443:Generated_Source\PSoC5/cyfitter_cfg.c **** 
 444:Generated_Source\PSoC5/cyfitter_cfg.c **** 
 445:Generated_Source\PSoC5/cyfitter_cfg.c **** 	/* Perform second pass device configuration. These items must be configured in specific order afte
 446:Generated_Source\PSoC5/cyfitter_cfg.c **** 	CYCONFIGCPY((void CYFAR *)(CYREG_PRT0_DM0), (const void CYFAR *)(BS_IOPINS0_0_VAL), 8u);
 520              		.loc 1 446 0
 521 00a6 0822     		movs	r2, #8
 522 00a8 1849     		ldr	r1, .L33+36
 523 00aa 1948     		ldr	r0, .L33+40
 524 00ac FFF7FEFF 		bl	CYCONFIGCPY
 525              	.LVL45:
 447:Generated_Source\PSoC5/cyfitter_cfg.c **** 	CYCONFIGCPY((void CYFAR *)(CYREG_PRT12_DR), (const void CYFAR *)(BS_IOPINS0_7_VAL), 10u);
 526              		.loc 1 447 0
 527 00b0 0A22     		movs	r2, #10
 528 00b2 1849     		ldr	r1, .L33+44
 529 00b4 1848     		ldr	r0, .L33+48
 530 00b6 FFF7FEFF 		bl	CYCONFIGCPY
 531              	.LVL46:
 448:Generated_Source\PSoC5/cyfitter_cfg.c **** 	CYCONFIGCPY((void CYFAR *)(CYREG_PRT15_DR), (const void CYFAR *)(BS_IOPINS0_8_VAL), 10u);
 532              		.loc 1 448 0
 533 00ba 0A22     		movs	r2, #10
 534 00bc 1749     		ldr	r1, .L33+52
 535 00be 1848     		ldr	r0, .L33+56
 536 00c0 FFF7FEFF 		bl	CYCONFIGCPY
 537              	.LVL47:
ARM GAS  C:\Users\teru\AppData\Local\Temp\ccyFXhH4.s 			page 19


 449:Generated_Source\PSoC5/cyfitter_cfg.c **** 	CYCONFIGCPY((void CYFAR *)(CYREG_PRT1_DM0), (const void CYFAR *)(BS_IOPINS0_1_VAL), 8u);
 538              		.loc 1 449 0
 539 00c4 0822     		movs	r2, #8
 540 00c6 1749     		ldr	r1, .L33+60
 541 00c8 1748     		ldr	r0, .L33+64
 542 00ca FFF7FEFF 		bl	CYCONFIGCPY
 543              	.LVL48:
 450:Generated_Source\PSoC5/cyfitter_cfg.c **** 	/* Switch Boost to the precision bandgap reference from its internal reference */
 451:Generated_Source\PSoC5/cyfitter_cfg.c **** 	CY_SET_REG8((void CYXDATA *)CYREG_BOOST_CR2, (CY_GET_REG8((void CYXDATA *)CYREG_BOOST_CR2) | 0x08u
 544              		.loc 1 451 0
 545 00ce 174A     		ldr	r2, .L33+68
 546 00d0 1378     		ldrb	r3, [r2]	@ zero_extendqisi2
 547 00d2 43F00803 		orr	r3, r3, #8
 548 00d6 1370     		strb	r3, [r2]
 452:Generated_Source\PSoC5/cyfitter_cfg.c **** 
 453:Generated_Source\PSoC5/cyfitter_cfg.c **** 	/* Perform basic analog initialization to defaults */
 454:Generated_Source\PSoC5/cyfitter_cfg.c **** 	AnalogSetDefault();
 549              		.loc 1 454 0
 550 00d8 FFF7FEFF 		bl	AnalogSetDefault
 551              	.LVL49:
 455:Generated_Source\PSoC5/cyfitter_cfg.c **** 
 456:Generated_Source\PSoC5/cyfitter_cfg.c **** 	/* Configure alternate active mode */
 457:Generated_Source\PSoC5/cyfitter_cfg.c **** 	CYCONFIGCPY((void CYFAR *)CYDEV_PM_STBY_BASE, (const void CYFAR *)CYDEV_PM_ACT_BASE, 14u);
 552              		.loc 1 457 0
 553 00dc 0E22     		movs	r2, #14
 554 00de 2146     		mov	r1, r4
 555 00e0 1348     		ldr	r0, .L33+72
 556 00e2 FFF7FEFF 		bl	CYCONFIGCPY
 557              	.LVL50:
 558 00e6 38BD     		pop	{r3, r4, r5, pc}
 559              	.L34:
 560              		.align	2
 561              	.L33:
 562 00e8 00480040 		.word	1073760256
 563 00ec E8460040 		.word	1073759976
 564 00f0 00000000 		.word	.LANCHOR0
 565 00f4 98000048 		.word	1207959704
 566 00f8 04040444 		.word	1141113860
 567 00fc D8060140 		.word	1073809112
 568 0100 04040484 		.word	-2080111612
 569 0104 D8140140 		.word	1073812696
 570 0108 A0430040 		.word	1073759136
 571 010c BC0B0048 		.word	1207962556
 572 0110 02510040 		.word	1073762562
 573 0114 C40B0048 		.word	1207962564
 574 0118 C0510040 		.word	1073762752
 575 011c D00B0048 		.word	1207962576
 576 0120 F0510040 		.word	1073762800
 577 0124 DC0B0048 		.word	1207962588
 578 0128 12510040 		.word	1073762578
 579 012c 22430040 		.word	1073759010
 580 0130 B0430040 		.word	1073759152
 581              		.cfi_endproc
 582              	.LFE8:
 583              		.size	cyfitter_cfg, .-cyfitter_cfg
 584              		.section	.rodata
 585              		.align	2
ARM GAS  C:\Users\teru\AppData\Local\Temp\ccyFXhH4.s 			page 20


 586              		.set	.LANCHOR0,. + 0
 587              		.type	cfg_memset_list.5018, %object
 588              		.size	cfg_memset_list.5018, 42
 589              	cfg_memset_list.5018:
 590 0000 004F0040 		.word	1073762048
 591 0004 0C00     		.short	12
 592 0006 20510040 		.4byte	1073762592
 593 000a 5000     		.short	80
 594 000c 00000140 		.word	1073807360
 595 0010 0010     		.short	4096
 596 0012 00140140 		.4byte	1073812480
 597 0016 0008     		.short	2048
 598 0018 00400140 		.word	1073823744
 599 001c 000A     		.short	2560
 600 001e 004C0140 		.4byte	1073826816
 601 0022 0002     		.short	512
 602 0024 10500140 		.word	1073827856
 603 0028 1000     		.short	16
 604 002a 0000     		.space	2
 605              		.type	cfg_memcpy_list.5019, %object
 606              		.size	cfg_memcpy_list.5019, 10
 607              	cfg_memcpy_list.5019:
 608 002c 00500140 		.word	1073827840
 609 0030 AC0B0048 		.word	1207962540
 610 0034 1000     		.short	16
 611              		.text
 612              	.Letext0:
 613              		.file 2 "c:\\program files (x86)\\cypress\\psoc creator\\4.2\\psoc creator\\import\\gnu\\arm\\5.4.
 614              		.file 3 "Generated_Source\\PSoC5\\cytypes.h"
 615              		.file 4 "Generated_Source\\PSoC5\\CyLib.h"