ARM GAS  C:\Users\teru\AppData\Local\Temp\ccdKGzld.s 			page 1


   1              		.syntax unified
   2              		.cpu cortex-m3
   3              		.fpu softvfp
   4              		.eabi_attribute 20, 1
   5              		.eabi_attribute 21, 1
   6              		.eabi_attribute 23, 3
   7              		.eabi_attribute 24, 1
   8              		.eabi_attribute 25, 1
   9              		.eabi_attribute 26, 1
  10              		.eabi_attribute 30, 1
  11              		.eabi_attribute 34, 1
  12              		.eabi_attribute 18, 4
  13              		.thumb
  14              		.syntax unified
  15              		.file	"dspmath.c"
  16              		.text
  17              	.Ltext0:
  18              		.cfi_sections	.debug_frame
  19              		.section	.text.fact,"ax",%progbits
  20              		.align	2
  21              		.global	fact
  22              		.thumb
  23              		.thumb_func
  24              		.type	fact, %function
  25              	fact:
  26              	.LFB7:
  27              		.file 1 "dspmath.c"
   1:dspmath.c     **** #include "dspmath.h"
   2:dspmath.c     **** #include <stddef.h>
   3:dspmath.c     **** #include <stdbool.h>
   4:dspmath.c     **** #include <assert.h>
   5:dspmath.c     **** #include <math.h>
   6:dspmath.c     **** #include "clip.h"
   7:dspmath.c     **** 
   8:dspmath.c     **** uint32_t fact(uint32_t n){
  28              		.loc 1 8 0
  29              		.cfi_startproc
  30              		@ args = 0, pretend = 0, frame = 0
  31              		@ frame_needed = 0, uses_anonymous_args = 0
  32              	.LVL0:
  33 0000 10B5     		push	{r4, lr}
  34              		.cfi_def_cfa_offset 8
  35              		.cfi_offset 4, -8
  36              		.cfi_offset 14, -4
   9:dspmath.c     ****     static int32_t memo[16]={1,1,-1};
  10:dspmath.c     ****     assert(n<sizeof(memo)/sizeof(memo[0]));
  37              		.loc 1 10 0
  38 0002 0F28     		cmp	r0, #15
  39 0004 05D9     		bls	.L2
  40              		.loc 1 10 0 is_stmt 0 discriminator 1
  41 0006 0A4B     		ldr	r3, .L6
  42 0008 0A4A     		ldr	r2, .L6+4
  43 000a 0A21     		movs	r1, #10
  44 000c 0A48     		ldr	r0, .L6+8
  45              	.LVL1:
  46 000e FFF7FEFF 		bl	__assert_func
  47              	.LVL2:
ARM GAS  C:\Users\teru\AppData\Local\Temp\ccdKGzld.s 			page 2


  48              	.L2:
  49 0012 0446     		mov	r4, r0
  11:dspmath.c     ****     //計算済み
  12:dspmath.c     ****     if (memo[n]>0)return memo[n];
  50              		.loc 1 12 0 is_stmt 1
  51 0014 094B     		ldr	r3, .L6+12
  52 0016 53F82000 		ldr	r0, [r3, r0, lsl #2]
  53              	.LVL3:
  54 001a 0028     		cmp	r0, #0
  55 001c 07DC     		bgt	.L4
  13:dspmath.c     ****     //未計算
  14:dspmath.c     ****     return memo[n]=fact(n-1)*n;
  56              		.loc 1 14 0
  57 001e 601E     		subs	r0, r4, #1
  58 0020 FFF7FEFF 		bl	fact
  59              	.LVL4:
  60 0024 00FB04F0 		mul	r0, r0, r4
  61 0028 044B     		ldr	r3, .L6+12
  62 002a 43F82400 		str	r0, [r3, r4, lsl #2]
  63              	.L4:
  15:dspmath.c     **** }
  64              		.loc 1 15 0
  65 002e 10BD     		pop	{r4, pc}
  66              	.LVL5:
  67              	.L7:
  68              		.align	2
  69              	.L6:
  70 0030 00000000 		.word	.LC0
  71 0034 00000000 		.word	.LANCHOR0
  72 0038 20000000 		.word	.LC1
  73 003c 00000000 		.word	.LANCHOR1
  74              		.cfi_endproc
  75              	.LFE7:
  76              		.size	fact, .-fact
  77              		.global	__aeabi_ldivmod
  78              		.section	.text.sqrt1516,"ax",%progbits
  79              		.align	2
  80              		.global	sqrt1516
  81              		.thumb
  82              		.thumb_func
  83              		.type	sqrt1516, %function
  84              	sqrt1516:
  85              	.LFB8:
  16:dspmath.c     **** 
  17:dspmath.c     **** q1516_t sqrt1516(q1516_t x) {
  86              		.loc 1 17 0
  87              		.cfi_startproc
  88              		@ args = 0, pretend = 0, frame = 0
  89              		@ frame_needed = 0, uses_anonymous_args = 0
  90              	.LVL6:
  91 0000 2DE9F04D 		push	{r4, r5, r6, r7, r8, r10, fp, lr}
  92              		.cfi_def_cfa_offset 32
  93              		.cfi_offset 4, -32
  94              		.cfi_offset 5, -28
  95              		.cfi_offset 6, -24
  96              		.cfi_offset 7, -20
  97              		.cfi_offset 8, -16
ARM GAS  C:\Users\teru\AppData\Local\Temp\ccdKGzld.s 			page 3


  98              		.cfi_offset 10, -12
  99              		.cfi_offset 11, -8
 100              		.cfi_offset 14, -4
 101 0004 8046     		mov	r8, r0
 102              	.LVL7:
  18:dspmath.c     ****     // newton方による解法
  19:dspmath.c     ****     const q1516_t eps = 1 << 2;
  20:dspmath.c     ****     const size_t limit = 8;  //試行回数の制限
  21:dspmath.c     ****     size_t cnt;
  22:dspmath.c     ****     q1516_t now = 1 << 16, diff;
 103              		.loc 1 22 0
 104 0006 4FF48034 		mov	r4, #65536
  23:dspmath.c     ****     q3132_t f;
  24:dspmath.c     ****     q1516_t g;
  25:dspmath.c     ****     for (cnt = 0; cnt < limit; cnt++) {
 105              		.loc 1 25 0
 106 000a 0025     		movs	r5, #0
 107 000c 1CE0     		b	.L9
 108              	.LVL8:
 109              	.L11:
  26:dspmath.c     ****         f = (((q3132_t)now * now) >> 16) - x;
 110              		.loc 1 26 0
 111 000e E317     		asrs	r3, r4, #31
 112 0010 04FB03F1 		mul	r1, r4, r3
 113 0014 A4FB0423 		umull	r2, r3, r4, r4
 114 0018 03EB4103 		add	r3, r3, r1, lsl #1
 115 001c 160C     		lsrs	r6, r2, #16
 116 001e 46EA0346 		orr	r6, r6, r3, lsl #16
 117 0022 1F14     		asrs	r7, r3, #16
 118 0024 B6EB080A 		subs	r10, r6, r8
 119 0028 67EBE87B 		sbc	fp, r7, r8, asr #31
 120              	.LVL9:
  27:dspmath.c     ****         g = 2 * now;
 121              		.loc 1 27 0
 122 002c 6200     		lsls	r2, r4, #1
 123              	.LVL10:
  28:dspmath.c     ****         now -= diff = ((f << 16) / g);
 124              		.loc 1 28 0
 125 002e 4FEA0B41 		lsl	r1, fp, #16
 126 0032 D317     		asrs	r3, r2, #31
 127 0034 4FEA0A40 		lsl	r0, r10, #16
 128 0038 41EA1A41 		orr	r1, r1, r10, lsr #16
 129 003c FFF7FEFF 		bl	__aeabi_ldivmod
 130              	.LVL11:
 131 0040 241A     		subs	r4, r4, r0
 132              	.LVL12:
  29:dspmath.c     ****         if (abs32(diff) < eps) {
 133              		.loc 1 29 0
 134 0042 0328     		cmp	r0, #3
 135 0044 02DD     		ble	.L10
  25:dspmath.c     ****         f = (((q3132_t)now * now) >> 16) - x;
 136              		.loc 1 25 0 discriminator 2
 137 0046 0135     		adds	r5, r5, #1
 138              	.LVL13:
 139              	.L9:
  25:dspmath.c     ****         f = (((q3132_t)now * now) >> 16) - x;
 140              		.loc 1 25 0 is_stmt 0 discriminator 1
ARM GAS  C:\Users\teru\AppData\Local\Temp\ccdKGzld.s 			page 4


 141 0048 072D     		cmp	r5, #7
 142 004a E0D9     		bls	.L11
 143              	.L10:
  30:dspmath.c     ****             return now;
  31:dspmath.c     ****         }
  32:dspmath.c     ****     }
  33:dspmath.c     ****     return now;
  34:dspmath.c     **** }
 144              		.loc 1 34 0 is_stmt 1
 145 004c 2046     		mov	r0, r4
 146 004e BDE8F08D 		pop	{r4, r5, r6, r7, r8, r10, fp, pc}
 147              		.cfi_endproc
 148              	.LFE8:
 149              		.size	sqrt1516, .-sqrt1516
 150 0052 00BF     		.section	.text.exp1516,"ax",%progbits
 151              		.align	2
 152              		.global	exp1516
 153              		.thumb
 154              		.thumb_func
 155              		.type	exp1516, %function
 156              	exp1516:
 157              	.LFB9:
  35:dspmath.c     **** 
  36:dspmath.c     **** q1516_t exp1516(q1516_t x) {
 158              		.loc 1 36 0
 159              		.cfi_startproc
 160              		@ args = 0, pretend = 0, frame = 0
 161              		@ frame_needed = 0, uses_anonymous_args = 0
 162              	.LVL14:
 163 0000 2DE9F84F 		push	{r3, r4, r5, r6, r7, r8, r9, r10, fp, lr}
 164              		.cfi_def_cfa_offset 40
 165              		.cfi_offset 3, -40
 166              		.cfi_offset 4, -36
 167              		.cfi_offset 5, -32
 168              		.cfi_offset 6, -28
 169              		.cfi_offset 7, -24
 170              		.cfi_offset 8, -20
 171              		.cfi_offset 9, -16
 172              		.cfi_offset 10, -12
 173              		.cfi_offset 11, -8
 174              		.cfi_offset 14, -4
 175              	.LVL15:
  37:dspmath.c     ****     //テイラー展開
  38:dspmath.c     ****     const size_t limit = 12;  //試行制限
  39:dspmath.c     ****     const q3132_t eps = 1 << 16;
  40:dspmath.c     ****     size_t cnt;
  41:dspmath.c     ****     int32_t fact = 1;
  42:dspmath.c     ****     //第一項と第二項の計算
  43:dspmath.c     ****     q3132_t pow = (q3132_t)x << 16;
 176              		.loc 1 43 0
 177 0004 0646     		mov	r6, r0
 178 0006 C717     		asrs	r7, r0, #31
 179 0008 3D04     		lsls	r5, r7, #16
 180 000a 45EA1045 		orr	r5, r5, r0, lsr #16
 181 000e 0404     		lsls	r4, r0, #16
 182              	.LVL16:
  44:dspmath.c     ****     q3132_t now = pow + (1ll << 32), diff;
ARM GAS  C:\Users\teru\AppData\Local\Temp\ccdKGzld.s 			page 5


 183              		.loc 1 44 0
 184 0010 14F10008 		adds	r8, r4, #0
 185 0014 45F10109 		adc	r9, r5, #1
 186              	.LVL17:
  41:dspmath.c     ****     //第一項と第二項の計算
 187              		.loc 1 41 0
 188 0018 4FF0010B 		mov	fp, #1
  45:dspmath.c     ****     //第n項の計算
  46:dspmath.c     ****     for (cnt = 2; cnt < limit; cnt++) {
 189              		.loc 1 46 0
 190 001c 4FF0020A 		mov	r10, #2
 191 0020 23E0     		b	.L14
 192              	.LVL18:
 193              	.L17:
  47:dspmath.c     ****         fact *= cnt;
 194              		.loc 1 47 0
 195 0022 0AFB0BFB 		mul	fp, r10, fp
 196              	.LVL19:
  48:dspmath.c     ****         pow = (pow * x) >> 16;
 197              		.loc 1 48 0
 198 0026 04FB07F1 		mul	r1, r4, r7
 199 002a 06FB0511 		mla	r1, r6, r5, r1
 200 002e A4FB0623 		umull	r2, r3, r4, r6
 201 0032 0B44     		add	r3, r3, r1
 202 0034 140C     		lsrs	r4, r2, #16
 203              	.LVL20:
 204 0036 44EA0344 		orr	r4, r4, r3, lsl #16
 205 003a 1D14     		asrs	r5, r3, #16
 206              	.LVL21:
  49:dspmath.c     ****         now += diff = pow / fact;
 207              		.loc 1 49 0
 208 003c 5A46     		mov	r2, fp
 209 003e D317     		asrs	r3, r2, #31
 210 0040 2046     		mov	r0, r4
 211 0042 2946     		mov	r1, r5
 212 0044 FFF7FEFF 		bl	__aeabi_ldivmod
 213              	.LVL22:
 214 0048 18EB0008 		adds	r8, r8, r0
 215              	.LVL23:
 216 004c 49EB0109 		adc	r9, r9, r1
 217              	.LVL24:
  50:dspmath.c     ****         if (abs64(diff) < eps) {
 218              		.loc 1 50 0
 219 0050 B0F5803F 		cmp	r0, #65536
 220 0054 71F10003 		sbcs	r3, r1, #0
 221 0058 05DA     		bge	.L15
  51:dspmath.c     ****             return now >> 16;
 222              		.loc 1 51 0
 223 005a 4FEA1840 		lsr	r0, r8, #16
 224              	.LVL25:
 225 005e 40EA0940 		orr	r0, r0, r9, lsl #16
 226 0062 BDE8F88F 		pop	{r3, r4, r5, r6, r7, r8, r9, r10, fp, pc}
 227              	.LVL26:
 228              	.L15:
  46:dspmath.c     ****         fact *= cnt;
 229              		.loc 1 46 0 discriminator 2
 230 0066 0AF1010A 		add	r10, r10, #1
ARM GAS  C:\Users\teru\AppData\Local\Temp\ccdKGzld.s 			page 6


 231              	.LVL27:
 232              	.L14:
  46:dspmath.c     ****         fact *= cnt;
 233              		.loc 1 46 0 is_stmt 0 discriminator 1
 234 006a BAF10B0F 		cmp	r10, #11
 235 006e D8D9     		bls	.L17
  52:dspmath.c     ****         }
  53:dspmath.c     ****     }
  54:dspmath.c     ****     return now >> 16;
 236              		.loc 1 54 0 is_stmt 1
 237 0070 4FEA1840 		lsr	r0, r8, #16
 238 0074 40EA0940 		orr	r0, r0, r9, lsl #16
  55:dspmath.c     **** }
 239              		.loc 1 55 0
 240 0078 BDE8F88F 		pop	{r3, r4, r5, r6, r7, r8, r9, r10, fp, pc}
 241              		.cfi_endproc
 242              	.LFE9:
 243              		.size	exp1516, .-exp1516
 244              		.section	.text.sin1516,"ax",%progbits
 245              		.align	2
 246              		.global	sin1516
 247              		.thumb
 248              		.thumb_func
 249              		.type	sin1516, %function
 250              	sin1516:
 251              	.LFB10:
  56:dspmath.c     **** 
  57:dspmath.c     **** 
  58:dspmath.c     **** 
  59:dspmath.c     **** q1516_t sin1516(q1516_t x){
 252              		.loc 1 59 0
 253              		.cfi_startproc
 254              		@ args = 0, pretend = 0, frame = 0
 255              		@ frame_needed = 0, uses_anonymous_args = 0
 256              	.LVL28:
 257 0000 2DE9F041 		push	{r4, r5, r6, r7, r8, lr}
 258              		.cfi_def_cfa_offset 24
 259              		.cfi_offset 4, -24
 260              		.cfi_offset 5, -20
 261              		.cfi_offset 6, -16
 262              		.cfi_offset 7, -12
 263              		.cfi_offset 8, -8
 264              		.cfi_offset 14, -4
  60:dspmath.c     ****     x=clip1516_rad(x);
 265              		.loc 1 60 0
 266 0004 FFF7FEFF 		bl	clip1516_rad
 267              	.LVL29:
  61:dspmath.c     ****     const size_t limit =12;
  62:dspmath.c     ****     const q1516_t eps=1<<3;
  63:dspmath.c     ****     const q1516_t x2=(int64_t)x*x>>16;
 268              		.loc 1 63 0
 269 0008 C317     		asrs	r3, r0, #31
 270 000a 00FB03F1 		mul	r1, r0, r3
 271 000e A0FB0023 		umull	r2, r3, r0, r0
 272 0012 03EB4103 		add	r3, r3, r1, lsl #1
 273 0016 120C     		lsrs	r2, r2, #16
 274 0018 42EA0347 		orr	r7, r2, r3, lsl #16
ARM GAS  C:\Users\teru\AppData\Local\Temp\ccdKGzld.s 			page 7


 275              	.LVL30:
  64:dspmath.c     ****     q1516_t xx=x<<16;
 276              		.loc 1 64 0
 277 001c 0404     		lsls	r4, r0, #16
 278              	.LVL31:
  65:dspmath.c     ****     q1516_t sum=xx,diff;
 279              		.loc 1 65 0
 280 001e A046     		mov	r8, r4
 281              	.LBB12:
  66:dspmath.c     ****     for (size_t i=3;i<limit;i+=2){
 282              		.loc 1 66 0
 283 0020 0325     		movs	r5, #3
 284 0022 15E0     		b	.L20
 285              	.LVL32:
 286              	.L24:
  67:dspmath.c     ****         xx=(xx*x2)>>16;
 287              		.loc 1 67 0
 288 0024 07FB04F4 		mul	r4, r7, r4
 289              	.LVL33:
 290 0028 2414     		asrs	r4, r4, #16
 291              	.LVL34:
  68:dspmath.c     ****         sum += diff=(i&0b10)?-xx/fact(i):xx/fact(i);   
 292              		.loc 1 68 0
 293 002a 15F0020F 		tst	r5, #2
 294 002e 06D0     		beq	.L21
 295              		.loc 1 68 0 is_stmt 0 discriminator 1
 296 0030 6642     		negs	r6, r4
 297 0032 2846     		mov	r0, r5
 298 0034 FFF7FEFF 		bl	fact
 299              	.LVL35:
 300 0038 B6FBF0F0 		udiv	r0, r6, r0
 301 003c 04E0     		b	.L22
 302              	.L21:
 303              		.loc 1 68 0 discriminator 2
 304 003e 2846     		mov	r0, r5
 305 0040 FFF7FEFF 		bl	fact
 306              	.LVL36:
 307 0044 B4FBF0F0 		udiv	r0, r4, r0
 308              	.L22:
 309              	.LVL37:
 310              		.loc 1 68 0 discriminator 4
 311 0048 8044     		add	r8, r8, r0
 312              	.LVL38:
  69:dspmath.c     ****         if (abs32(diff)<eps){
 313              		.loc 1 69 0 is_stmt 1 discriminator 4
 314 004a 0728     		cmp	r0, #7
 315 004c 02DD     		ble	.L23
  66:dspmath.c     ****         xx=(xx*x2)>>16;
 316              		.loc 1 66 0 discriminator 2
 317 004e 0235     		adds	r5, r5, #2
 318              	.LVL39:
 319              	.L20:
  66:dspmath.c     ****         xx=(xx*x2)>>16;
 320              		.loc 1 66 0 is_stmt 0 discriminator 1
 321 0050 0B2D     		cmp	r5, #11
 322 0052 E7D9     		bls	.L24
 323              	.L23:
ARM GAS  C:\Users\teru\AppData\Local\Temp\ccdKGzld.s 			page 8


 324              	.LBE12:
  70:dspmath.c     ****             return sum;
  71:dspmath.c     ****         }
  72:dspmath.c     ****     }
  73:dspmath.c     ****     return sum;
  74:dspmath.c     **** }
 325              		.loc 1 74 0 is_stmt 1
 326 0054 4046     		mov	r0, r8
 327 0056 BDE8F081 		pop	{r4, r5, r6, r7, r8, pc}
 328              		.cfi_endproc
 329              	.LFE10:
 330              		.size	sin1516, .-sin1516
 331 005a 00BF     		.section	.text.cos1516,"ax",%progbits
 332              		.align	2
 333              		.global	cos1516
 334              		.thumb
 335              		.thumb_func
 336              		.type	cos1516, %function
 337              	cos1516:
 338              	.LFB11:
  75:dspmath.c     **** 
  76:dspmath.c     **** q1516_t cos1516(q1516_t x){
 339              		.loc 1 76 0
 340              		.cfi_startproc
 341              		@ args = 0, pretend = 0, frame = 0
 342              		@ frame_needed = 0, uses_anonymous_args = 0
 343              	.LVL40:
 344 0000 2DE9F041 		push	{r4, r5, r6, r7, r8, lr}
 345              		.cfi_def_cfa_offset 24
 346              		.cfi_offset 4, -24
 347              		.cfi_offset 5, -20
 348              		.cfi_offset 6, -16
 349              		.cfi_offset 7, -12
 350              		.cfi_offset 8, -8
 351              		.cfi_offset 14, -4
  77:dspmath.c     ****     x=clip1516_rad(x);
 352              		.loc 1 77 0
 353 0004 FFF7FEFF 		bl	clip1516_rad
 354              	.LVL41:
  78:dspmath.c     ****     const size_t limit =12;
  79:dspmath.c     ****     const q1516_t eps=1<<3;
  80:dspmath.c     ****     const q1516_t x2=(int64_t)x*x>>16;
 355              		.loc 1 80 0
 356 0008 C317     		asrs	r3, r0, #31
 357 000a 00FB03F1 		mul	r1, r0, r3
 358 000e A0FB0023 		umull	r2, r3, r0, r0
 359 0012 03EB4103 		add	r3, r3, r1, lsl #1
 360 0016 120C     		lsrs	r2, r2, #16
 361 0018 42EA0347 		orr	r7, r2, r3, lsl #16
 362              	.LVL42:
  81:dspmath.c     ****     q1516_t xx=x<<16;
 363              		.loc 1 81 0
 364 001c 0404     		lsls	r4, r0, #16
 365              	.LVL43:
 366              	.LBB13:
  82:dspmath.c     ****     q1516_t sum=1<<16,diff;
  83:dspmath.c     ****     for (size_t i=2;i<limit;i+=2){
ARM GAS  C:\Users\teru\AppData\Local\Temp\ccdKGzld.s 			page 9


 367              		.loc 1 83 0
 368 001e 0225     		movs	r5, #2
 369              	.LBE13:
  82:dspmath.c     ****     q1516_t sum=1<<16,diff;
 370              		.loc 1 82 0
 371 0020 4FF48038 		mov	r8, #65536
 372              	.LBB14:
 373              		.loc 1 83 0
 374 0024 15E0     		b	.L27
 375              	.LVL44:
 376              	.L31:
  84:dspmath.c     ****         xx=(xx*x2)>>16;
 377              		.loc 1 84 0
 378 0026 07FB04F4 		mul	r4, r7, r4
 379              	.LVL45:
 380 002a 2414     		asrs	r4, r4, #16
 381              	.LVL46:
  85:dspmath.c     ****         sum += diff=(i&0b10)?-xx/fact(i):xx/fact(i);   
 382              		.loc 1 85 0
 383 002c 15F0020F 		tst	r5, #2
 384 0030 06D0     		beq	.L28
 385              		.loc 1 85 0 is_stmt 0 discriminator 1
 386 0032 6642     		negs	r6, r4
 387 0034 2846     		mov	r0, r5
 388 0036 FFF7FEFF 		bl	fact
 389              	.LVL47:
 390 003a B6FBF0F0 		udiv	r0, r6, r0
 391 003e 04E0     		b	.L29
 392              	.L28:
 393              		.loc 1 85 0 discriminator 2
 394 0040 2846     		mov	r0, r5
 395 0042 FFF7FEFF 		bl	fact
 396              	.LVL48:
 397 0046 B4FBF0F0 		udiv	r0, r4, r0
 398              	.L29:
 399              	.LVL49:
 400              		.loc 1 85 0 discriminator 4
 401 004a 8044     		add	r8, r8, r0
 402              	.LVL50:
  86:dspmath.c     ****         if (abs32(diff)<eps){
 403              		.loc 1 86 0 is_stmt 1 discriminator 4
 404 004c 0728     		cmp	r0, #7
 405 004e 02DD     		ble	.L30
  83:dspmath.c     ****         xx=(xx*x2)>>16;
 406              		.loc 1 83 0 discriminator 2
 407 0050 0235     		adds	r5, r5, #2
 408              	.LVL51:
 409              	.L27:
  83:dspmath.c     ****         xx=(xx*x2)>>16;
 410              		.loc 1 83 0 is_stmt 0 discriminator 1
 411 0052 0B2D     		cmp	r5, #11
 412 0054 E7D9     		bls	.L31
 413              	.L30:
 414              	.LBE14:
  87:dspmath.c     ****             return sum;
  88:dspmath.c     ****         }
  89:dspmath.c     ****     }
ARM GAS  C:\Users\teru\AppData\Local\Temp\ccdKGzld.s 			page 10


  90:dspmath.c     ****     return sum;
  91:dspmath.c     **** }...
 415              		.loc 1 91 0 is_stmt 1
 416 0056 4046     		mov	r0, r8
 417 0058 BDE8F081 		pop	{r4, r5, r6, r7, r8, pc}
 418              		.cfi_endproc
 419              	.LFE11:
 420              		.size	cos1516, .-cos1516
 421              		.section	.rodata
 422              		.align	2
 423              		.set	.LANCHOR0,. + 0
 424              		.type	__func__.4963, %object
 425              		.size	__func__.4963, 5
 426              	__func__.4963:
 427 0000 66616374 		.ascii	"fact\000"
 427      00
 428              		.data
 429              		.align	2
 430              		.set	.LANCHOR1,. + 0
 431              		.type	memo.4962, %object
 432              		.size	memo.4962, 64
 433              	memo.4962:
 434 0000 01000000 		.word	1
 435 0004 01000000 		.word	1
 436 0008 FFFFFFFF 		.word	-1
 437 000c 00000000 		.space	52
 437      00000000 
 437      00000000 
 437      00000000 
 437      00000000 
 438              		.section	.rodata.str1.4,"aMS",%progbits,1
 439              		.align	2
 440              	.LC0:
 441 0000 6E3C7369 		.ascii	"n<sizeof(memo)/sizeof(memo[0])\000"
 441      7A656F66 
 441      286D656D 
 441      6F292F73 
 441      697A656F 
 442 001f 00       		.space	1
 443              	.LC1:
 444 0020 6473706D 		.ascii	"dspmath.c\000"
 444      6174682E 
 444      6300
 445              		.text
 446              	.Letext0:
 447              		.file 2 "c:\\program files (x86)\\cypress\\psoc creator\\4.2\\psoc creator\\import\\gnu\\arm\\5.4.
 448              		.file 3 "c:\\program files (x86)\\cypress\\psoc creator\\4.2\\psoc creator\\import\\gnu\\arm\\5.4.
 449              		.file 4 "dsptype.h"
 450              		.file 5 "c:\\program files (x86)\\cypress\\psoc creator\\4.2\\psoc creator\\import\\gnu\\arm\\5.4.
 451              		.file 6 "dspmath.h"
 452              		.file 7 "c:\\program files (x86)\\cypress\\psoc creator\\4.2\\psoc creator\\import\\gnu\\arm\\5.4.
 453              		.file 8 "clip.h"